---
triple:          'arm64-apple-darwin'
binary-path:     compiler
relocations:
  - { offsetInCU: 0x3F, offset: 0x3F, size: 0x8, addend: 0x0, symName: _root, symObjAddr: 0x6ACB0, symBinAddr: 0x100028008, symSize: 0x0 }
  - { offsetInCU: 0xC20C, offset: 0xC20C, size: 0x8, addend: 0x0, symName: __ZNSt3__16copy_nB7v160006IPKcmPcEENS_9enable_ifIXsr33__is_cpp17_random_access_iteratorIT_EE5valueET1_E4typeES5_T0_S6_, symObjAddr: 0xCFF0, symBinAddr: 0x1000113F0, symSize: 0x44 }
  - { offsetInCU: 0xD18B, offset: 0xD18B, size: 0x8, addend: 0x0, symName: __ZNSt3__1plB7v160006IcNS_11char_traitsIcEENS_9allocatorIcEEEENS_12basic_stringIT_T0_T1_EEOS9_RKS9_, symObjAddr: 0x8198, symBinAddr: 0x10000C598, symSize: 0x40 }
  - { offsetInCU: 0xD1E3, offset: 0xD1E3, size: 0x8, addend: 0x0, symName: __ZNSt3__1plB7v160006IcNS_11char_traitsIcEENS_9allocatorIcEEEENS_12basic_stringIT_T0_T1_EERKS9_SB_, symObjAddr: 0x81D8, symBinAddr: 0x10000C5D8, symSize: 0x134 }
  - { offsetInCU: 0xD284, offset: 0xD284, size: 0x8, addend: 0x0, symName: __ZNSt3__118__debug_db_erase_cB7v160006INS_6vectorIN2yy6parser17stack_symbol_typeENS_9allocatorIS4_EEEEEEvPT_, symObjAddr: 0x8F5C, symBinAddr: 0x10000D35C, symSize: 0x10 }
  - { offsetInCU: 0xD2B5, offset: 0xD2B5, size: 0x8, addend: 0x0, symName: __ZNSt3__112__to_addressB7v160006IN2yy6parser17stack_symbol_typeEEEPT_S5_, symObjAddr: 0x90A0, symBinAddr: 0x10000D4A0, symSize: 0x14 }
  - { offsetInCU: 0xD2EA, offset: 0xD2EA, size: 0x8, addend: 0x0, symName: __ZNSt3__119__libcpp_deallocateB7v160006EPvmm, symObjAddr: 0x91D4, symBinAddr: 0x10000D5D4, symSize: 0x30 }
  - { offsetInCU: 0xD332, offset: 0xD332, size: 0x8, addend: 0x0, symName: __ZNSt3__127__do_deallocate_handle_sizeB7v160006IJEEEvPvmDpT_, symObjAddr: 0x9204, symBinAddr: 0x10000D604, symSize: 0x28 }
  - { offsetInCU: 0xD370, offset: 0xD370, size: 0x8, addend: 0x0, symName: __ZNSt3__124__libcpp_operator_deleteB7v160006IJPvEEEvDpT_, symObjAddr: 0x922C, symBinAddr: 0x10000D62C, symSize: 0x24 }
  - { offsetInCU: 0xD3A5, offset: 0xD3A5, size: 0x8, addend: 0x0, symName: __ZNSt3__119__debug_db_insert_cB7v160006INS_4listIP4NodeNS_9allocatorIS3_EEEEEEvPT_, symObjAddr: 0x96A8, symBinAddr: 0x10000DAA8, symSize: 0x10 }
  - { offsetInCU: 0xD409, offset: 0xD409, size: 0x8, addend: 0x0, symName: __ZNSt3__1neB7v160006ERKNS_15__list_iteratorIP4NodePvEES6_, symObjAddr: 0x98E0, symBinAddr: 0x10000DCE0, symSize: 0x34 }
  - { offsetInCU: 0xD446, offset: 0xD446, size: 0x8, addend: 0x0, symName: __ZNSt3__1eqB7v160006ERKNS_15__list_iteratorIP4NodePvEES6_, symObjAddr: 0x9A54, symBinAddr: 0x10000DE54, symSize: 0x30 }
  - { offsetInCU: 0xD483, offset: 0xD483, size: 0x8, addend: 0x0, symName: __ZNSt3__119__debug_db_insert_cB7v160006INS_12basic_stringIcNS_11char_traitsIcEENS_9allocatorIcEEEEEEvPT_, symObjAddr: 0x9B38, symBinAddr: 0x10000DF38, symSize: 0x10 }
  - { offsetInCU: 0xD4B4, offset: 0xD4B4, size: 0x8, addend: 0x0, symName: __ZNSt3__112__to_addressB7v160006IKcEEPT_S3_, symObjAddr: 0x9D44, symBinAddr: 0x10000E144, symSize: 0x14 }
  - { offsetInCU: 0xD51C, offset: 0xD51C, size: 0x8, addend: 0x0, symName: __ZNSt3__118__constexpr_strlenB7v160006EPKc, symObjAddr: 0x9F70, symBinAddr: 0x10000E370, symSize: 0x24 }
  - { offsetInCU: 0xD548, offset: 0xD548, size: 0x8, addend: 0x0, symName: __ZNSt3__115__debug_db_swapB7v160006INS_12basic_stringIcNS_11char_traitsIcEENS_9allocatorIcEEEEEEvPT_S8_, symObjAddr: 0xA048, symBinAddr: 0x10000E448, symSize: 0x14 }
  - { offsetInCU: 0xD587, offset: 0xD587, size: 0x8, addend: 0x0, symName: __ZNSt3__122__make_exception_guardB7v160006INS_6vectorIN2yy6parser17stack_symbol_typeENS_9allocatorIS4_EEE16__destroy_vectorEEENS_28__exception_guard_exceptionsIT_EESA_, symObjAddr: 0xA1E8, symBinAddr: 0x10000E5E8, symSize: 0x40 }
  - { offsetInCU: 0xD5BC, offset: 0xD5BC, size: 0x8, addend: 0x0, symName: __ZNSt3__119__debug_db_insert_cB7v160006INS_6vectorIN2yy6parser17stack_symbol_typeENS_9allocatorIS4_EEEEEEvPT_, symObjAddr: 0xA228, symBinAddr: 0x10000E628, symSize: 0x10 }
  - { offsetInCU: 0xD5ED, offset: 0xD5ED, size: 0x8, addend: 0x0, symName: __ZNSt3__119__allocate_at_leastB7v160006INS_9allocatorIN2yy6parser17stack_symbol_typeEEEEENS_19__allocation_resultINS_16allocator_traitsIT_E7pointerEEERS8_m, symObjAddr: 0xA590, symBinAddr: 0x10000E990, symSize: 0x40 }
  - { offsetInCU: 0xD630, offset: 0xD630, size: 0x8, addend: 0x0, symName: __ZNSt3__13minB7v160006ImEERKT_S3_S3_, symObjAddr: 0xA6A4, symBinAddr: 0x10000EAA4, symSize: 0x2C }
  - { offsetInCU: 0xD874, offset: 0xD874, size: 0x8, addend: 0x0, symName: __ZNSt3__13minB7v160006ImNS_6__lessImmEEEERKT_S5_S5_T0_, symObjAddr: 0xA730, symBinAddr: 0x10000EB30, symSize: 0x54 }
  - { offsetInCU: 0xD909, offset: 0xD909, size: 0x8, addend: 0x0, symName: __ZNSt3__120__throw_length_errorB7v160006EPKc, symObjAddr: 0xA80C, symBinAddr: 0x10000EC0C, symSize: 0x64 }
  - { offsetInCU: 0xD931, offset: 0xD931, size: 0x8, addend: 0x0, symName: __ZNSt3__117__libcpp_allocateB7v160006Emm, symObjAddr: 0xA97C, symBinAddr: 0x10000ED7C, symSize: 0x28 }
  - { offsetInCU: 0xD96E, offset: 0xD96E, size: 0x8, addend: 0x0, symName: __ZNSt3__121__libcpp_operator_newB7v160006IJmEEEPvDpT_, symObjAddr: 0xA9A4, symBinAddr: 0x10000EDA4, symSize: 0x24 }
  - { offsetInCU: 0xD9A7, offset: 0xD9A7, size: 0x8, addend: 0x0, symName: __ZNSt3__13maxB7v160006ImEERKT_S3_S3_, symObjAddr: 0xB214, symBinAddr: 0x10000F614, symSize: 0x2C }
  - { offsetInCU: 0xD9EA, offset: 0xD9EA, size: 0x8, addend: 0x0, symName: __ZNSt3__13maxB7v160006ImNS_6__lessImmEEEERKT_S5_S5_T0_, symObjAddr: 0xB240, symBinAddr: 0x10000F640, symSize: 0x54 }
  - { offsetInCU: 0xDA44, offset: 0xDA44, size: 0x8, addend: 0x0, symName: __ZNSt3__142__uninitialized_allocator_move_if_noexceptB7v160006INS_9allocatorIN2yy6parser17stack_symbol_typeEEENS_16reverse_iteratorIPS4_EES8_S8_EET2_RT_T0_T1_S9_, symObjAddr: 0xB4C0, symBinAddr: 0x10000F8C0, symSize: 0x12C }
  - { offsetInCU: 0xDAE4, offset: 0xDAE4, size: 0x8, addend: 0x0, symName: __ZNSt3__14swapB7v160006IPN2yy6parser17stack_symbol_typeEEENS_9enable_ifIXaasr21is_move_constructibleIT_EE5valuesr18is_move_assignableIS6_EE5valueEvE4typeERS6_S9_, symObjAddr: 0xB638, symBinAddr: 0x10000FA38, symSize: 0x3C }
  - { offsetInCU: 0xDB35, offset: 0xDB35, size: 0x8, addend: 0x0, symName: __ZNSt3__125__debug_db_invalidate_allB7v160006INS_6vectorIN2yy6parser17stack_symbol_typeENS_9allocatorIS4_EEEEEEvPT_, symObjAddr: 0xB674, symBinAddr: 0x10000FA74, symSize: 0x10 }
  - { offsetInCU: 0xDB66, offset: 0xDB66, size: 0x8, addend: 0x0, symName: __ZNSt3__122__make_exception_guardB7v160006INS_29_AllocatorDestroyRangeReverseINS_9allocatorIN2yy6parser17stack_symbol_typeEEENS_16reverse_iteratorIPS5_EEEEEENS_28__exception_guard_exceptionsIT_EESC_, symObjAddr: 0xB684, symBinAddr: 0x10000FA84, symSize: 0x4C }
  - { offsetInCU: 0xDB9C, offset: 0xDB9C, size: 0x8, addend: 0x0, symName: __ZNSt3__1neB7v160006IPN2yy6parser17stack_symbol_typeES4_EEbRKNS_16reverse_iteratorIT_EERKNS5_IT0_EE, symObjAddr: 0xB714, symBinAddr: 0x10000FB14, symSize: 0x48 }
  - { offsetInCU: 0xDBE8, offset: 0xDBE8, size: 0x8, addend: 0x0, symName: __ZNSt3__112__to_addressB7v160006INS_16reverse_iteratorIPN2yy6parser17stack_symbol_typeEEEvEENS_5decayIDTclsr19__to_address_helperIT_EE6__callclsr3stdE7declvalIRKS8_EEEEE4typeESA_, symObjAddr: 0xB75C, symBinAddr: 0x10000FB5C, symSize: 0x24 }
  - { offsetInCU: 0xDC47, offset: 0xDC47, size: 0x8, addend: 0x0, symName: __ZNSt3__119__allocator_destroyB7v160006INS_9allocatorIN2yy6parser17stack_symbol_typeEEENS_16reverse_iteratorINS6_IPS4_EEEES9_EEvRT_T0_T1_, symObjAddr: 0xBA0C, symBinAddr: 0x10000FE0C, symSize: 0x70 }
  - { offsetInCU: 0xDCAC, offset: 0xDCAC, size: 0x8, addend: 0x0, symName: __ZNSt3__1neB7v160006INS_16reverse_iteratorIPN2yy6parser17stack_symbol_typeEEES6_EEbRKNS1_IT_EERKNS1_IT0_EE, symObjAddr: 0xBAB8, symBinAddr: 0x10000FEB8, symSize: 0x60 }
  - { offsetInCU: 0xDCF8, offset: 0xDCF8, size: 0x8, addend: 0x0, symName: __ZNSt3__112__to_addressB7v160006INS_16reverse_iteratorINS1_IPN2yy6parser17stack_symbol_typeEEEEEvEENS_5decayIDTclsr19__to_address_helperIT_EE6__callclsr3stdE7declvalIRKS9_EEEEE4typeESB_, symObjAddr: 0xBB18, symBinAddr: 0x10000FF18, symSize: 0x24 }
  - { offsetInCU: 0xDD75, offset: 0xDD75, size: 0x8, addend: 0x0, symName: __ZNSt3__112__to_addressB7v160006IcEEPT_S2_, symObjAddr: 0xC854, symBinAddr: 0x100010C54, symSize: 0x14 }
  - { offsetInCU: 0xDFDF, offset: 0xDFDF, size: 0x8, addend: 0x0, symName: __ZNSt3__14copyB7v160006IPKcPcEET0_T_S5_S4_, symObjAddr: 0xD034, symBinAddr: 0x100011434, symSize: 0x40 }
  - { offsetInCU: 0xE039, offset: 0xE039, size: 0x8, addend: 0x0, symName: __ZNSt3__16__copyB7v160006INS_17_ClassicAlgPolicyEPKcS3_PcEENS_4pairIT0_T2_EES6_T1_S7_, symObjAddr: 0xD074, symBinAddr: 0x100011474, symSize: 0x44 }
  - { offsetInCU: 0xE0A5, offset: 0xE0A5, size: 0x8, addend: 0x0, symName: __ZNSt3__123__dispatch_copy_or_moveB7v160006INS_17_ClassicAlgPolicyENS_11__copy_loopIS1_EENS_14__copy_trivialEPKcS6_PcEENS_4pairIT2_T4_EES9_T3_SA_, symObjAddr: 0xD0B8, symBinAddr: 0x1000114B8, symSize: 0x44 }
  - { offsetInCU: 0xE123, offset: 0xE123, size: 0x8, addend: 0x0, symName: __ZNSt3__121__unwrap_and_dispatchB7v160006INS_10__overloadINS_11__copy_loopINS_17_ClassicAlgPolicyEEENS_14__copy_trivialEEEPKcS8_PcLi0EEENS_4pairIT0_T2_EESB_T1_SC_, symObjAddr: 0xD0FC, symBinAddr: 0x1000114FC, symSize: 0xB4 }
  - { offsetInCU: 0xE1B1, offset: 0xE1B1, size: 0x8, addend: 0x0, symName: __ZNSt3__114__unwrap_rangeB7v160006IPKcS2_EENS_4pairIT0_S4_EET_S6_, symObjAddr: 0xD1B0, symBinAddr: 0x1000115B0, symSize: 0x60 }
  - { offsetInCU: 0xE346, offset: 0xE346, size: 0x8, addend: 0x0, symName: __ZNSt3__113__unwrap_iterB7v160006IPcNS_18__unwrap_iter_implIS1_Lb1EEELi0EEEDTclsrT0_8__unwrapclsr3stdE7declvalIT_EEEES5_, symObjAddr: 0xD258, symBinAddr: 0x100011658, symSize: 0x24 }
  - { offsetInCU: 0xE38A, offset: 0xE38A, size: 0x8, addend: 0x0, symName: __ZNSt3__19make_pairB7v160006IPKcPcEENS_4pairINS_18__unwrap_ref_decayIT_E4typeENS5_IT0_E4typeEEEOS6_OS9_, symObjAddr: 0xD27C, symBinAddr: 0x10001167C, symSize: 0x38 }
  - { offsetInCU: 0xE3D9, offset: 0xE3D9, size: 0x8, addend: 0x0, symName: __ZNSt3__114__rewrap_rangeB7v160006IPKcS2_EET_S3_T0_, symObjAddr: 0xD2B4, symBinAddr: 0x1000116B4, symSize: 0x2C }
  - { offsetInCU: 0xE425, offset: 0xE425, size: 0x8, addend: 0x0, symName: __ZNSt3__113__rewrap_iterB7v160006IPcS1_NS_18__unwrap_iter_implIS1_Lb1EEEEET_S4_T0_, symObjAddr: 0xD2E0, symBinAddr: 0x1000116E0, symSize: 0x3C }
  - { offsetInCU: 0xE47A, offset: 0xE47A, size: 0x8, addend: 0x0, symName: __ZNSt3__19make_pairB7v160006IPKcS2_EENS_4pairINS_18__unwrap_ref_decayIT_E4typeENS4_IT0_E4typeEEEOS5_OS8_, symObjAddr: 0xD31C, symBinAddr: 0x10001171C, symSize: 0x38 }
  - { offsetInCU: 0xE4C9, offset: 0xE4C9, size: 0x8, addend: 0x0, symName: __ZNSt3__113__unwrap_iterB7v160006IPKcNS_18__unwrap_iter_implIS2_Lb1EEELi0EEEDTclsrT0_8__unwrapclsr3stdE7declvalIT_EEEES6_, symObjAddr: 0xD354, symBinAddr: 0x100011754, symSize: 0x24 }
  - { offsetInCU: 0xE634, offset: 0xE634, size: 0x8, addend: 0x0, symName: __ZNSt3__119__copy_trivial_implB7v160006IKccEENS_4pairIPT_PT0_EES4_S4_S6_, symObjAddr: 0xD40C, symBinAddr: 0x10001180C, symSize: 0x7C }
  - { offsetInCU: 0xE69C, offset: 0xE69C, size: 0x8, addend: 0x0, symName: __ZNSt3__19make_pairB7v160006IRPKcPcEENS_4pairINS_18__unwrap_ref_decayIT_E4typeENS6_IT0_E4typeEEEOS7_OSA_, symObjAddr: 0xD488, symBinAddr: 0x100011888, symSize: 0x38 }
  - { offsetInCU: 0xE73E, offset: 0xE73E, size: 0x8, addend: 0x0, symName: __ZNSt3__113__rewrap_iterB7v160006IPKcS2_NS_18__unwrap_iter_implIS2_Lb1EEEEET_S5_T0_, symObjAddr: 0xD5C4, symBinAddr: 0x1000119C4, symSize: 0x3C }
  - { offsetInCU: 0xE793, offset: 0xE793, size: 0x8, addend: 0x0, symName: __ZNSt3__16fill_nB7v160006IPcmcEET_S2_T0_RKT1_, symObjAddr: 0xD690, symBinAddr: 0x100011A90, symSize: 0x44 }
  - { offsetInCU: 0xE7F6, offset: 0xE7F6, size: 0x8, addend: 0x0, symName: __ZNSt3__18__fill_nB7v160006IPcmcEET_S2_T0_RKT1_, symObjAddr: 0xD6D4, symBinAddr: 0x100011AD4, symSize: 0x64 }
  - { offsetInCU: 0xE859, offset: 0xE859, size: 0x8, addend: 0x0, symName: __ZNSt3__121__convert_to_integralB7v160006Em, symObjAddr: 0xD738, symBinAddr: 0x100011B38, symSize: 0x14 }
  - { offsetInCU: 0xEE43, offset: 0xEE43, size: 0x8, addend: 0x0, symName: __ZSt28__throw_bad_array_new_lengthB7v160006v, symObjAddr: 0xA948, symBinAddr: 0x10000ED48, symSize: 0x34 }
  - { offsetInCU: 0x10180, offset: 0x10180, size: 0x8, addend: 0x0, symName: __ZN2yy6parser12yypact_ninf_E, symObjAddr: 0xE50B, symBinAddr: 0x1000213FB, symSize: 0x0 }
  - { offsetInCU: 0x1153F, offset: 0x1153F, size: 0x8, addend: 0x0, symName: __ZN2yy6parser13yytable_ninf_E, symObjAddr: 0xE50C, symBinAddr: 0x1000213FC, symSize: 0x0 }
  - { offsetInCU: 0x11556, offset: 0x11556, size: 0x8, addend: 0x0, symName: __ZN2yy6parser7yypact_E, symObjAddr: 0xE50E, symBinAddr: 0x1000213FE, symSize: 0x0 }
  - { offsetInCU: 0x1156E, offset: 0x1156E, size: 0x8, addend: 0x0, symName: __ZN2yy6parser9yydefact_E, symObjAddr: 0xE660, symBinAddr: 0x100021550, symSize: 0x0 }
  - { offsetInCU: 0x11586, offset: 0x11586, size: 0x8, addend: 0x0, symName: __ZN2yy6parser8yypgoto_E, symObjAddr: 0xE70A, symBinAddr: 0x1000215FA, symSize: 0x0 }
  - { offsetInCU: 0x1159E, offset: 0x1159E, size: 0x8, addend: 0x0, symName: __ZN2yy6parser10yydefgoto_E, symObjAddr: 0xE74A, symBinAddr: 0x10002163A, symSize: 0x0 }
  - { offsetInCU: 0x115B6, offset: 0x115B6, size: 0x8, addend: 0x0, symName: __ZN2yy6parser8yytable_E, symObjAddr: 0xE76A, symBinAddr: 0x10002165A, symSize: 0x0 }
  - { offsetInCU: 0x115CE, offset: 0x115CE, size: 0x8, addend: 0x0, symName: __ZN2yy6parser8yycheck_E, symObjAddr: 0xEA74, symBinAddr: 0x100021964, symSize: 0x0 }
  - { offsetInCU: 0x115E6, offset: 0x115E6, size: 0x8, addend: 0x0, symName: __ZN2yy6parser7yystos_E, symObjAddr: 0xED7E, symBinAddr: 0x100021C6E, symSize: 0x0 }
  - { offsetInCU: 0x115FE, offset: 0x115FE, size: 0x8, addend: 0x0, symName: __ZN2yy6parser5yyr1_E, symObjAddr: 0xEE27, symBinAddr: 0x100021D17, symSize: 0x0 }
  - { offsetInCU: 0x11616, offset: 0x11616, size: 0x8, addend: 0x0, symName: __ZN2yy6parser5yyr2_E, symObjAddr: 0xEE76, symBinAddr: 0x100021D66, symSize: 0x0 }
  - { offsetInCU: 0x1162E, offset: 0x1162E, size: 0x8, addend: 0x0, symName: __ZN2yy6parser8yytname_E, symObjAddr: 0xE208, symBinAddr: 0x100024778, symSize: 0x0 }
  - { offsetInCU: 0x119C7, offset: 0x119C7, size: 0x8, addend: 0x0, symName: __ZNK2yy6parser15yysyntax_error_ERKNS0_7contextE, symObjAddr: 0x8A64, symBinAddr: 0x10000CE64, symSize: 0x270 }
  - { offsetInCU: 0x11AC7, offset: 0x11AC7, size: 0x8, addend: 0x0, symName: __ZNSt3__16vectorIN2yy6parser17stack_symbol_typeENS_9allocatorIS3_EEE26__swap_out_circular_bufferERNS_14__split_bufferIS3_RS5_EE, symObjAddr: 0xB0D0, symBinAddr: 0x10000F4D0, symSize: 0x118 }
  - { offsetInCU: 0x13AE9, offset: 0x13AE9, size: 0x8, addend: 0x0, symName: __ZN2yy6parserC2Ev, symObjAddr: 0x0, symBinAddr: 0x100004400, symSize: 0x44 }
  - { offsetInCU: 0x13B15, offset: 0x13B15, size: 0x8, addend: 0x0, symName: __ZN2yy6parser5stackINS0_17stack_symbol_typeENSt3__16vectorIS2_NS3_9allocatorIS2_EEEEEC1Em, symObjAddr: 0x44, symBinAddr: 0x100004444, symSize: 0x34 }
  - { offsetInCU: 0x13B4E, offset: 0x13B4E, size: 0x8, addend: 0x0, symName: __ZN2yy6parserC1Ev, symObjAddr: 0x78, symBinAddr: 0x100004478, symSize: 0x2C }
  - { offsetInCU: 0x13B7A, offset: 0x13B7A, size: 0x8, addend: 0x0, symName: __ZN2yy6parserD2Ev, symObjAddr: 0xA4, symBinAddr: 0x1000044A4, symSize: 0x40 }
  - { offsetInCU: 0x13BA6, offset: 0x13BA6, size: 0x8, addend: 0x0, symName: __ZN2yy6parser5stackINS0_17stack_symbol_typeENSt3__16vectorIS2_NS3_9allocatorIS2_EEEEED1Ev, symObjAddr: 0xE4, symBinAddr: 0x1000044E4, symSize: 0x2C }
  - { offsetInCU: 0x13BD3, offset: 0x13BD3, size: 0x8, addend: 0x0, symName: __ZN2yy6parserD1Ev, symObjAddr: 0x110, symBinAddr: 0x100004510, symSize: 0x2C }
  - { offsetInCU: 0x13BFF, offset: 0x13BFF, size: 0x8, addend: 0x0, symName: __ZN2yy6parserD0Ev, symObjAddr: 0x13C, symBinAddr: 0x10000453C, symSize: 0x30 }
  - { offsetInCU: 0x13C2B, offset: 0x13C2B, size: 0x8, addend: 0x0, symName: __ZN2yy6parser12syntax_errorD2Ev, symObjAddr: 0x16C, symBinAddr: 0x10000456C, symSize: 0x2C }
  - { offsetInCU: 0x13C57, offset: 0x13C57, size: 0x8, addend: 0x0, symName: __ZN2yy6parser12syntax_errorD1Ev, symObjAddr: 0x198, symBinAddr: 0x100004598, symSize: 0x2C }
  - { offsetInCU: 0x13C83, offset: 0x13C83, size: 0x8, addend: 0x0, symName: __ZN2yy6parser12syntax_errorD0Ev, symObjAddr: 0x1C4, symBinAddr: 0x1000045C4, symSize: 0x30 }
  - { offsetInCU: 0x13CAF, offset: 0x13CAF, size: 0x8, addend: 0x0, symName: __ZN2yy6parser8by_stateC2Ev, symObjAddr: 0x1F4, symBinAddr: 0x1000045F4, symSize: 0x18 }
  - { offsetInCU: 0x13CDB, offset: 0x13CDB, size: 0x8, addend: 0x0, symName: __ZN2yy6parser8by_stateC1Ev, symObjAddr: 0x20C, symBinAddr: 0x10000460C, symSize: 0x2C }
  - { offsetInCU: 0x13D07, offset: 0x13D07, size: 0x8, addend: 0x0, symName: __ZN2yy6parser8by_stateC2ERKS1_, symObjAddr: 0x238, symBinAddr: 0x100004638, symSize: 0x24 }
  - { offsetInCU: 0x13D41, offset: 0x13D41, size: 0x8, addend: 0x0, symName: __ZN2yy6parser8by_stateC1ERKS1_, symObjAddr: 0x25C, symBinAddr: 0x10000465C, symSize: 0x34 }
  - { offsetInCU: 0x13D7B, offset: 0x13D7B, size: 0x8, addend: 0x0, symName: __ZN2yy6parser8by_state5clearEv, symObjAddr: 0x290, symBinAddr: 0x100004690, symSize: 0x18 }
  - { offsetInCU: 0x13DA3, offset: 0x13DA3, size: 0x8, addend: 0x0, symName: __ZN2yy6parser8by_state4moveERS1_, symObjAddr: 0x2A8, symBinAddr: 0x1000046A8, symSize: 0x38 }
  - { offsetInCU: 0x13DD9, offset: 0x13DD9, size: 0x8, addend: 0x0, symName: __ZN2yy6parser8by_stateC2Eh, symObjAddr: 0x2E0, symBinAddr: 0x1000046E0, symSize: 0x20 }
  - { offsetInCU: 0x13E13, offset: 0x13E13, size: 0x8, addend: 0x0, symName: __ZN2yy6parser8by_stateC1Eh, symObjAddr: 0x300, symBinAddr: 0x100004700, symSize: 0x34 }
  - { offsetInCU: 0x13E4D, offset: 0x13E4D, size: 0x8, addend: 0x0, symName: __ZNK2yy6parser8by_state4kindEv, symObjAddr: 0x334, symBinAddr: 0x100004734, symSize: 0x58 }
  - { offsetInCU: 0x13E75, offset: 0x13E75, size: 0x8, addend: 0x0, symName: __ZN2yy6parser17stack_symbol_typeC2Ev, symObjAddr: 0x38C, symBinAddr: 0x10000478C, symSize: 0x2C }
  - { offsetInCU: 0x13EA1, offset: 0x13EA1, size: 0x8, addend: 0x0, symName: __ZN2yy6parser12basic_symbolINS0_8by_stateEEC2Ev, symObjAddr: 0x3B8, symBinAddr: 0x1000047B8, symSize: 0x38 }
  - { offsetInCU: 0x13ECB, offset: 0x13ECB, size: 0x8, addend: 0x0, symName: __ZN2yy6parser17stack_symbol_typeC1Ev, symObjAddr: 0x3F0, symBinAddr: 0x1000047F0, symSize: 0x2C }
  - { offsetInCU: 0x13EF7, offset: 0x13EF7, size: 0x8, addend: 0x0, symName: __ZN2yy6parser17stack_symbol_typeC2EOS1_, symObjAddr: 0x41C, symBinAddr: 0x10000481C, symSize: 0xDC }
  - { offsetInCU: 0x13F31, offset: 0x13F31, size: 0x8, addend: 0x0, symName: __ZN2yy6parser12basic_symbolINS0_8by_stateEEC2Eh, symObjAddr: 0x4F8, symBinAddr: 0x1000048F8, symSize: 0x40 }
  - { offsetInCU: 0x13F6F, offset: 0x13F6F, size: 0x8, addend: 0x0, symName: __ZN2yy6parser10value_type4moveIP4NodeEEvOS1_, symObjAddr: 0x538, symBinAddr: 0x100004938, symSize: 0x44 }
  - { offsetInCU: 0x13FAD, offset: 0x13FAD, size: 0x8, addend: 0x0, symName: __ZN2yy6parser10value_type4moveINSt3__112basic_stringIcNS3_11char_traitsIcEENS3_9allocatorIcEEEEEEvOS1_, symObjAddr: 0x57C, symBinAddr: 0x10000497C, symSize: 0x44 }
  - { offsetInCU: 0x13FEB, offset: 0x13FEB, size: 0x8, addend: 0x0, symName: __ZN2yy6parser12basic_symbolINS0_8by_stateEED2Ev, symObjAddr: 0x5C0, symBinAddr: 0x1000049C0, symSize: 0x38 }
  - { offsetInCU: 0x14015, offset: 0x14015, size: 0x8, addend: 0x0, symName: __ZN2yy6parser17stack_symbol_typeC1EOS1_, symObjAddr: 0x5F8, symBinAddr: 0x1000049F8, symSize: 0x34 }
  - { offsetInCU: 0x1404F, offset: 0x1404F, size: 0x8, addend: 0x0, symName: __ZN2yy6parser17stack_symbol_typeC2EhONS0_11symbol_typeE, symObjAddr: 0x62C, symBinAddr: 0x100004A2C, symSize: 0xE0 }
  - { offsetInCU: 0x1409A, offset: 0x1409A, size: 0x8, addend: 0x0, symName: __ZNK2yy6parser7by_kind4kindEv, symObjAddr: 0x70C, symBinAddr: 0x100004B0C, symSize: 0x18 }
  - { offsetInCU: 0x140C2, offset: 0x140C2, size: 0x8, addend: 0x0, symName: __ZN2yy6parser17stack_symbol_typeC1EhONS0_11symbol_typeE, symObjAddr: 0x724, symBinAddr: 0x100004B24, symSize: 0x3C }
  - { offsetInCU: 0x1410D, offset: 0x1410D, size: 0x8, addend: 0x0, symName: __ZN2yy6parser7yypush_EPKcONS0_17stack_symbol_typeE, symObjAddr: 0x760, symBinAddr: 0x100004B60, symSize: 0x54 }
  - { offsetInCU: 0x14154, offset: 0x14154, size: 0x8, addend: 0x0, symName: __ZN2yy6parser5stackINS0_17stack_symbol_typeENSt3__16vectorIS2_NS3_9allocatorIS2_EEEEE4pushEOS2_, symObjAddr: 0x7B4, symBinAddr: 0x100004BB4, symSize: 0xB4 }
  - { offsetInCU: 0x14189, offset: 0x14189, size: 0x8, addend: 0x0, symName: __ZN2yy6parser7yypush_EPKchONS0_11symbol_typeE, symObjAddr: 0x868, symBinAddr: 0x100004C68, symSize: 0xBC }
  - { offsetInCU: 0x141DF, offset: 0x141DF, size: 0x8, addend: 0x0, symName: __ZN2yy6parser17stack_symbol_typeD1Ev, symObjAddr: 0x924, symBinAddr: 0x100004D24, symSize: 0x2C }
  - { offsetInCU: 0x1420C, offset: 0x1420C, size: 0x8, addend: 0x0, symName: __ZN2yy6parser6yypop_Ei, symObjAddr: 0x950, symBinAddr: 0x100004D50, symSize: 0x30 }
  - { offsetInCU: 0x14244, offset: 0x14244, size: 0x8, addend: 0x0, symName: __ZN2yy6parser5stackINS0_17stack_symbol_typeENSt3__16vectorIS2_NS3_9allocatorIS2_EEEEE3popEl, symObjAddr: 0x980, symBinAddr: 0x100004D80, symSize: 0x68 }
  - { offsetInCU: 0x14279, offset: 0x14279, size: 0x8, addend: 0x0, symName: __ZN2yy6parser17yy_lr_goto_state_Ehi, symObjAddr: 0x9E8, symBinAddr: 0x100004DE8, symSize: 0xC4 }
  - { offsetInCU: 0x142BE, offset: 0x142BE, size: 0x8, addend: 0x0, symName: __ZN2yy6parser25yy_pact_value_is_default_Ei, symObjAddr: 0xAAC, symBinAddr: 0x100004EAC, symSize: 0x20 }
  - { offsetInCU: 0x142E5, offset: 0x142E5, size: 0x8, addend: 0x0, symName: __ZN2yy6parser24yy_table_value_is_error_Ei, symObjAddr: 0xACC, symBinAddr: 0x100004ECC, symSize: 0x20 }
  - { offsetInCU: 0x1430C, offset: 0x1430C, size: 0x8, addend: 0x0, symName: __ZN2yy6parserclEv, symObjAddr: 0xAEC, symBinAddr: 0x100004EEC, symSize: 0x2C }
  - { offsetInCU: 0x14335, offset: 0x14335, size: 0x8, addend: 0x0, symName: __ZN2yy6parser5parseEv, symObjAddr: 0xB18, symBinAddr: 0x100004F18, symSize: 0x7120 }
  - { offsetInCU: 0x14503, offset: 0x14503, size: 0x8, addend: 0x0, symName: __ZN2yy6parser11symbol_typeC1Ev, symObjAddr: 0x7D6C, symBinAddr: 0x10000C16C, symSize: 0x2C }
  - { offsetInCU: 0x1452D, offset: 0x1452D, size: 0x8, addend: 0x0, symName: __ZN2yy6parser5stackINS0_17stack_symbol_typeENSt3__16vectorIS2_NS3_9allocatorIS2_EEEEE5clearEv, symObjAddr: 0x7D98, symBinAddr: 0x10000C198, symSize: 0x24 }
  - { offsetInCU: 0x14553, offset: 0x14553, size: 0x8, addend: 0x0, symName: __ZN2yy6parser5stackINS0_17stack_symbol_typeENSt3__16vectorIS2_NS3_9allocatorIS2_EEEEEixEl, symObjAddr: 0x7DBC, symBinAddr: 0x10000C1BC, symSize: 0x44 }
  - { offsetInCU: 0x14588, offset: 0x14588, size: 0x8, addend: 0x0, symName: __ZNK2yy6parser12basic_symbolINS0_7by_kindEE5emptyEv, symObjAddr: 0x7E00, symBinAddr: 0x10000C200, symSize: 0x30 }
  - { offsetInCU: 0x145B0, offset: 0x145B0, size: 0x8, addend: 0x0, symName: __ZN2yy6parser12basic_symbolINS0_7by_kindEE4moveERS3_, symObjAddr: 0x7E30, symBinAddr: 0x10000C230, symSize: 0x9C }
  - { offsetInCU: 0x145E7, offset: 0x145E7, size: 0x8, addend: 0x0, symName: __ZN2yy6parser11symbol_typeD1Ev, symObjAddr: 0x7ECC, symBinAddr: 0x10000C2CC, symSize: 0x2C }
  - { offsetInCU: 0x14614, offset: 0x14614, size: 0x8, addend: 0x0, symName: __ZN2yy6parser5errorERKNS0_12syntax_errorE, symObjAddr: 0x7EF8, symBinAddr: 0x10000C2F8, symSize: 0x88 }
  - { offsetInCU: 0x1464C, offset: 0x1464C, size: 0x8, addend: 0x0, symName: __ZN2yy6parser10value_type7emplaceIP4NodeJEEERT_DpOT0_, symObjAddr: 0x7F8C, symBinAddr: 0x10000C38C, symSize: 0x28 }
  - { offsetInCU: 0x14685, offset: 0x14685, size: 0x8, addend: 0x0, symName: __ZN2yy6parser10value_type7emplaceINSt3__112basic_stringIcNS3_11char_traitsIcEENS3_9allocatorIcEEEEJEEERT_DpOT0_, symObjAddr: 0x7FB4, symBinAddr: 0x10000C3B4, symSize: 0x30 }
  - { offsetInCU: 0x146B9, offset: 0x146B9, size: 0x8, addend: 0x0, symName: __ZN2yy6parser10value_type2asIP4NodeEERT_v, symObjAddr: 0x7FE4, symBinAddr: 0x10000C3E4, symSize: 0x24 }
  - { offsetInCU: 0x146ED, offset: 0x146ED, size: 0x8, addend: 0x0, symName: __ZNSt3__112basic_stringIcNS_11char_traitsIcEENS_9allocatorIcEEEC1B7v160006IDnEEPKc, symObjAddr: 0x8008, symBinAddr: 0x10000C408, symSize: 0x34 }
  - { offsetInCU: 0x1472B, offset: 0x1472B, size: 0x8, addend: 0x0, symName: __ZN4NodeC1ENSt3__112basic_stringIcNS0_11char_traitsIcEENS0_9allocatorIcEEEES6_i, symObjAddr: 0x803C, symBinAddr: 0x10000C43C, symSize: 0x44 }
  - { offsetInCU: 0x14781, offset: 0x14781, size: 0x8, addend: 0x0, symName: __ZNSt3__14listIP4NodeNS_9allocatorIS2_EEE9push_backERKS2_, symObjAddr: 0x8080, symBinAddr: 0x10000C480, symSize: 0xF4 }
  - { offsetInCU: 0x147D6, offset: 0x147D6, size: 0x8, addend: 0x0, symName: __ZN2yy6parser10value_type2asINSt3__112basic_stringIcNS3_11char_traitsIcEENS3_9allocatorIcEEEEEERT_v, symObjAddr: 0x8174, symBinAddr: 0x10000C574, symSize: 0x24 }
  - { offsetInCU: 0x14805, offset: 0x14805, size: 0x8, addend: 0x0, symName: __ZN2yy6parser7contextC1ERKS0_RKNS0_11symbol_typeE, symObjAddr: 0x830C, symBinAddr: 0x10000C70C, symSize: 0x3C }
  - { offsetInCU: 0x14850, offset: 0x14850, size: 0x8, addend: 0x0, symName: __ZNK2yy6parser11yy_destroy_INS0_7by_kindEEEvPKcRNS0_12basic_symbolIT_EE, symObjAddr: 0x8348, symBinAddr: 0x10000C748, symSize: 0x30 }
  - { offsetInCU: 0x1489D, offset: 0x1489D, size: 0x8, addend: 0x0, symName: __ZN2yy6parser12basic_symbolINS0_7by_kindEE5clearEv, symObjAddr: 0x8378, symBinAddr: 0x10000C778, symSize: 0x98 }
  - { offsetInCU: 0x148E1, offset: 0x148E1, size: 0x8, addend: 0x0, symName: __ZNK2yy6parser5stackINS0_17stack_symbol_typeENSt3__16vectorIS2_NS3_9allocatorIS2_EEEEE4sizeEv, symObjAddr: 0x8410, symBinAddr: 0x10000C810, symSize: 0x24 }
  - { offsetInCU: 0x14907, offset: 0x14907, size: 0x8, addend: 0x0, symName: __ZNK2yy6parser11yy_destroy_INS0_8by_stateEEEvPKcRNS0_12basic_symbolIT_EE, symObjAddr: 0x8434, symBinAddr: 0x10000C834, symSize: 0x30 }
  - { offsetInCU: 0x14954, offset: 0x14954, size: 0x8, addend: 0x0, symName: __ZN2yy6parser10yytnamerr_EPKc, symObjAddr: 0x8464, symBinAddr: 0x10000C864, symSize: 0x198 }
  - { offsetInCU: 0x149C3, offset: 0x149C3, size: 0x8, addend: 0x0, symName: __ZNSt3__112basic_stringIcNS_11char_traitsIcEENS_9allocatorIcEEEC1B7v160006Ev, symObjAddr: 0x85FC, symBinAddr: 0x10000C9FC, symSize: 0x2C }
  - { offsetInCU: 0x149ED, offset: 0x149ED, size: 0x8, addend: 0x0, symName: __ZNSt3__112basic_stringIcNS_11char_traitsIcEENS_9allocatorIcEEEpLB7v160006Ec, symObjAddr: 0x8628, symBinAddr: 0x10000CA28, symSize: 0x34 }
  - { offsetInCU: 0x14A22, offset: 0x14A22, size: 0x8, addend: 0x0, symName: __ZN2yy6parser11symbol_nameENS0_11symbol_kind16symbol_kind_typeE, symObjAddr: 0x865C, symBinAddr: 0x10000CA5C, symSize: 0x38 }
  - { offsetInCU: 0x14A49, offset: 0x14A49, size: 0x8, addend: 0x0, symName: __ZN2yy6parser7contextC2ERKS0_RKNS0_11symbol_typeE, symObjAddr: 0x8694, symBinAddr: 0x10000CA94, symSize: 0x2C }
  - { offsetInCU: 0x14A94, offset: 0x14A94, size: 0x8, addend: 0x0, symName: __ZNK2yy6parser7context15expected_tokensEPNS0_11symbol_kind16symbol_kind_typeEi, symObjAddr: 0x86C0, symBinAddr: 0x10000CAC0, symSize: 0x250 }
  - { offsetInCU: 0x14B53, offset: 0x14B53, size: 0x8, addend: 0x0, symName: __ZNK2yy6parser5stackINS0_17stack_symbol_typeENSt3__16vectorIS2_NS3_9allocatorIS2_EEEEEixEl, symObjAddr: 0x8910, symBinAddr: 0x10000CD10, symSize: 0x44 }
  - { offsetInCU: 0x14B88, offset: 0x14B88, size: 0x8, addend: 0x0, symName: __ZNK2yy6parser26yy_syntax_error_arguments_ERKNS0_7contextEPNS0_11symbol_kind16symbol_kind_typeEi, symObjAddr: 0x8954, symBinAddr: 0x10000CD54, symSize: 0xD0 }
  - { offsetInCU: 0x14BFC, offset: 0x14BFC, size: 0x8, addend: 0x0, symName: __ZNK2yy6parser7context9lookaheadEv, symObjAddr: 0x8A24, symBinAddr: 0x10000CE24, symSize: 0x18 }
  - { offsetInCU: 0x14C22, offset: 0x14C22, size: 0x8, addend: 0x0, symName: __ZNK2yy6parser7context5tokenEv, symObjAddr: 0x8A3C, symBinAddr: 0x10000CE3C, symSize: 0x28 }
  - { offsetInCU: 0x14C48, offset: 0x14C48, size: 0x8, addend: 0x0, symName: __ZNSt3__112basic_stringIcNS_11char_traitsIcEENS_9allocatorIcEEEpLB7v160006ERKS5_, symObjAddr: 0x8CEC, symBinAddr: 0x10000D0EC, symSize: 0x2C }
  - { offsetInCU: 0x14C7D, offset: 0x14C7D, size: 0x8, addend: 0x0, symName: __ZN2yy6parser5stackINS0_17stack_symbol_typeENSt3__16vectorIS2_NS3_9allocatorIS2_EEEEED2Ev, symObjAddr: 0x8D18, symBinAddr: 0x10000D118, symSize: 0x2C }
  - { offsetInCU: 0x14CAA, offset: 0x14CAA, size: 0x8, addend: 0x0, symName: __ZNSt3__16vectorIN2yy6parser17stack_symbol_typeENS_9allocatorIS3_EEED1B7v160006Ev, symObjAddr: 0x8D44, symBinAddr: 0x10000D144, symSize: 0x2C }
  - { offsetInCU: 0x14CD4, offset: 0x14CD4, size: 0x8, addend: 0x0, symName: __ZNSt3__16vectorIN2yy6parser17stack_symbol_typeENS_9allocatorIS3_EEED2B7v160006Ev, symObjAddr: 0x8D70, symBinAddr: 0x10000D170, symSize: 0x44 }
  - { offsetInCU: 0x14CFE, offset: 0x14CFE, size: 0x8, addend: 0x0, symName: __ZNSt3__16vectorIN2yy6parser17stack_symbol_typeENS_9allocatorIS3_EEE16__destroy_vectorC1ERS6_, symObjAddr: 0x8DB4, symBinAddr: 0x10000D1B4, symSize: 0x34 }
  - { offsetInCU: 0x14D37, offset: 0x14D37, size: 0x8, addend: 0x0, symName: __ZNSt3__16vectorIN2yy6parser17stack_symbol_typeENS_9allocatorIS3_EEE16__destroy_vectorclB7v160006Ev, symObjAddr: 0x8DE8, symBinAddr: 0x10000D1E8, symSize: 0x9C }
  - { offsetInCU: 0x14D5D, offset: 0x14D5D, size: 0x8, addend: 0x0, symName: __ZNSt3__16vectorIN2yy6parser17stack_symbol_typeENS_9allocatorIS3_EEE16__destroy_vectorC2ERS6_, symObjAddr: 0x8E84, symBinAddr: 0x10000D284, symSize: 0x20 }
  - { offsetInCU: 0x14D96, offset: 0x14D96, size: 0x8, addend: 0x0, symName: __ZNKSt3__16vectorIN2yy6parser17stack_symbol_typeENS_9allocatorIS3_EEE17__annotate_deleteB7v160006Ev, symObjAddr: 0x8EA4, symBinAddr: 0x10000D2A4, symSize: 0xB8 }
  - { offsetInCU: 0x14DBC, offset: 0x14DBC, size: 0x8, addend: 0x0, symName: __ZNSt3__16vectorIN2yy6parser17stack_symbol_typeENS_9allocatorIS3_EEE7__clearB7v160006Ev, symObjAddr: 0x8F6C, symBinAddr: 0x10000D36C, symSize: 0x28 }
  - { offsetInCU: 0x14DE2, offset: 0x14DE2, size: 0x8, addend: 0x0, symName: __ZNSt3__116allocator_traitsINS_9allocatorIN2yy6parser17stack_symbol_typeEEEE10deallocateB7v160006ERS5_PS4_m, symObjAddr: 0x8F94, symBinAddr: 0x10000D394, symSize: 0x34 }
  - { offsetInCU: 0x14E24, offset: 0x14E24, size: 0x8, addend: 0x0, symName: __ZNSt3__16vectorIN2yy6parser17stack_symbol_typeENS_9allocatorIS3_EEE7__allocB7v160006Ev, symObjAddr: 0x8FC8, symBinAddr: 0x10000D3C8, symSize: 0x28 }
  - { offsetInCU: 0x14E4A, offset: 0x14E4A, size: 0x8, addend: 0x0, symName: __ZNKSt3__16vectorIN2yy6parser17stack_symbol_typeENS_9allocatorIS3_EEE8capacityB7v160006Ev, symObjAddr: 0x8FF0, symBinAddr: 0x10000D3F0, symSize: 0x40 }
  - { offsetInCU: 0x14E70, offset: 0x14E70, size: 0x8, addend: 0x0, symName: __ZNKSt3__16vectorIN2yy6parser17stack_symbol_typeENS_9allocatorIS3_EEE31__annotate_contiguous_containerB7v160006EPKvS8_S8_S8_, symObjAddr: 0x9030, symBinAddr: 0x10000D430, symSize: 0x20 }
  - { offsetInCU: 0x14EC6, offset: 0x14EC6, size: 0x8, addend: 0x0, symName: __ZNKSt3__16vectorIN2yy6parser17stack_symbol_typeENS_9allocatorIS3_EEE4dataB7v160006Ev, symObjAddr: 0x9050, symBinAddr: 0x10000D450, symSize: 0x28 }
  - { offsetInCU: 0x14EEC, offset: 0x14EEC, size: 0x8, addend: 0x0, symName: __ZNKSt3__16vectorIN2yy6parser17stack_symbol_typeENS_9allocatorIS3_EEE4sizeB7v160006Ev, symObjAddr: 0x9078, symBinAddr: 0x10000D478, symSize: 0x28 }
  - { offsetInCU: 0x14F12, offset: 0x14F12, size: 0x8, addend: 0x0, symName: __ZNSt3__16vectorIN2yy6parser17stack_symbol_typeENS_9allocatorIS3_EEE22__base_destruct_at_endB7v160006EPS3_, symObjAddr: 0x90B4, symBinAddr: 0x10000D4B4, symSize: 0x8C }
  - { offsetInCU: 0x14F56, offset: 0x14F56, size: 0x8, addend: 0x0, symName: __ZNSt3__116allocator_traitsINS_9allocatorIN2yy6parser17stack_symbol_typeEEEE7destroyB7v160006IS4_vEEvRS5_PT_, symObjAddr: 0x9140, symBinAddr: 0x10000D540, symSize: 0x2C }
  - { offsetInCU: 0x14F93, offset: 0x14F93, size: 0x8, addend: 0x0, symName: __ZNSt3__19allocatorIN2yy6parser17stack_symbol_typeEE7destroyB7v160006EPS3_, symObjAddr: 0x916C, symBinAddr: 0x10000D56C, symSize: 0x28 }
  - { offsetInCU: 0x14FC7, offset: 0x14FC7, size: 0x8, addend: 0x0, symName: __ZNSt3__19allocatorIN2yy6parser17stack_symbol_typeEE10deallocateB7v160006EPS3_m, symObjAddr: 0x9194, symBinAddr: 0x10000D594, symSize: 0x40 }
  - { offsetInCU: 0x15009, offset: 0x15009, size: 0x8, addend: 0x0, symName: __ZNSt3__117__compressed_pairIPN2yy6parser17stack_symbol_typeENS_9allocatorIS3_EEE6secondB7v160006Ev, symObjAddr: 0x9250, symBinAddr: 0x10000D650, symSize: 0x24 }
  - { offsetInCU: 0x1502F, offset: 0x1502F, size: 0x8, addend: 0x0, symName: __ZNSt3__122__compressed_pair_elemINS_9allocatorIN2yy6parser17stack_symbol_typeEEELi1ELb1EE5__getB7v160006Ev, symObjAddr: 0x9274, symBinAddr: 0x10000D674, symSize: 0x14 }
  - { offsetInCU: 0x15055, offset: 0x15055, size: 0x8, addend: 0x0, symName: __ZNKSt3__16vectorIN2yy6parser17stack_symbol_typeENS_9allocatorIS3_EEE9__end_capB7v160006Ev, symObjAddr: 0x9288, symBinAddr: 0x10000D688, symSize: 0x28 }
  - { offsetInCU: 0x1507B, offset: 0x1507B, size: 0x8, addend: 0x0, symName: __ZNKSt3__117__compressed_pairIPN2yy6parser17stack_symbol_typeENS_9allocatorIS3_EEE5firstB7v160006Ev, symObjAddr: 0x92B0, symBinAddr: 0x10000D6B0, symSize: 0x24 }
  - { offsetInCU: 0x150A1, offset: 0x150A1, size: 0x8, addend: 0x0, symName: __ZNKSt3__122__compressed_pair_elemIPN2yy6parser17stack_symbol_typeELi0ELb0EE5__getB7v160006Ev, symObjAddr: 0x92D4, symBinAddr: 0x10000D6D4, symSize: 0x14 }
  - { offsetInCU: 0x150C7, offset: 0x150C7, size: 0x8, addend: 0x0, symName: __ZN2yy6parser17stack_symbol_typeD2Ev, symObjAddr: 0x92E8, symBinAddr: 0x10000D6E8, symSize: 0x2C }
  - { offsetInCU: 0x150F4, offset: 0x150F4, size: 0x8, addend: 0x0, symName: __ZN2yy6parser11symbol_typeC2Ev, symObjAddr: 0x9314, symBinAddr: 0x10000D714, symSize: 0x2C }
  - { offsetInCU: 0x1511E, offset: 0x1511E, size: 0x8, addend: 0x0, symName: __ZN2yy6parser12basic_symbolINS0_7by_kindEEC2Ev, symObjAddr: 0x9340, symBinAddr: 0x10000D740, symSize: 0x38 }
  - { offsetInCU: 0x15148, offset: 0x15148, size: 0x8, addend: 0x0, symName: __ZN2yy6parser7by_kindC2Ev, symObjAddr: 0x9378, symBinAddr: 0x10000D778, symSize: 0x1C }
  - { offsetInCU: 0x15174, offset: 0x15174, size: 0x8, addend: 0x0, symName: __ZN2yy6parser10value_typeC1Ev, symObjAddr: 0x9394, symBinAddr: 0x10000D794, symSize: 0x2C }
  - { offsetInCU: 0x1519E, offset: 0x1519E, size: 0x8, addend: 0x0, symName: __ZN2yy6parser10value_typeC2Ev, symObjAddr: 0x93C0, symBinAddr: 0x10000D7C0, symSize: 0x20 }
  - { offsetInCU: 0x151C8, offset: 0x151C8, size: 0x8, addend: 0x0, symName: __ZN2yy6parser11symbol_typeD2Ev, symObjAddr: 0x93E0, symBinAddr: 0x10000D7E0, symSize: 0x2C }
  - { offsetInCU: 0x151F5, offset: 0x151F5, size: 0x8, addend: 0x0, symName: __ZN2yy6parser12basic_symbolINS0_7by_kindEED2Ev, symObjAddr: 0x940C, symBinAddr: 0x10000D80C, symSize: 0x38 }
  - { offsetInCU: 0x1521F, offset: 0x1521F, size: 0x8, addend: 0x0, symName: __ZN2yy6parser10value_typeD1Ev, symObjAddr: 0x9444, symBinAddr: 0x10000D844, symSize: 0x2C }
  - { offsetInCU: 0x15249, offset: 0x15249, size: 0x8, addend: 0x0, symName: __ZN2yy6parser10value_typeD2Ev, symObjAddr: 0x9470, symBinAddr: 0x10000D870, symSize: 0x14 }
  - { offsetInCU: 0x15273, offset: 0x15273, size: 0x8, addend: 0x0, symName: __ZN4NodeC2ENSt3__112basic_stringIcNS0_11char_traitsIcEENS0_9allocatorIcEEEES6_i, symObjAddr: 0x9484, symBinAddr: 0x10000D884, symSize: 0xA4 }
  - { offsetInCU: 0x152C9, offset: 0x152C9, size: 0x8, addend: 0x0, symName: __ZNSt3__14listIP4NodeNS_9allocatorIS2_EEEC1B7v160006Ev, symObjAddr: 0x9528, symBinAddr: 0x10000D928, symSize: 0x2C }
  - { offsetInCU: 0x152F3, offset: 0x152F3, size: 0x8, addend: 0x0, symName: __ZN4Node14checkSemanticsER11SymbolTable, symObjAddr: 0x9554, symBinAddr: 0x10000D954, symSize: 0xC8 }
  - { offsetInCU: 0x15388, offset: 0x15388, size: 0x8, addend: 0x0, symName: __ZNSt3__14listIP4NodeNS_9allocatorIS2_EEEC2B7v160006Ev, symObjAddr: 0x961C, symBinAddr: 0x10000DA1C, symSize: 0x3C }
  - { offsetInCU: 0x153B2, offset: 0x153B2, size: 0x8, addend: 0x0, symName: __ZNSt3__110__list_impIP4NodeNS_9allocatorIS2_EEEC2Ev, symObjAddr: 0x9658, symBinAddr: 0x10000DA58, symSize: 0x50 }
  - { offsetInCU: 0x153DE, offset: 0x153DE, size: 0x8, addend: 0x0, symName: __ZNSt3__116__list_node_baseIP4NodePvEC1B7v160006Ev, symObjAddr: 0x96B8, symBinAddr: 0x10000DAB8, symSize: 0x2C }
  - { offsetInCU: 0x15412, offset: 0x15412, size: 0x8, addend: 0x0, symName: __ZNSt3__117__compressed_pairImNS_9allocatorINS_11__list_nodeIP4NodePvEEEEEC1B7v160006IiNS_18__default_init_tagEEEOT_OT0_, symObjAddr: 0x96E4, symBinAddr: 0x10000DAE4, symSize: 0x3C }
  - { offsetInCU: 0x1546A, offset: 0x1546A, size: 0x8, addend: 0x0, symName: __ZNSt3__116__list_node_baseIP4NodePvEC2B7v160006Ev, symObjAddr: 0x9720, symBinAddr: 0x10000DB20, symSize: 0x4C }
  - { offsetInCU: 0x15494, offset: 0x15494, size: 0x8, addend: 0x0, symName: __ZNSt3__126__list_node_pointer_traitsIP4NodePvE26__unsafe_link_pointer_castB7v160006EPNS_16__list_node_baseIS2_S3_EE, symObjAddr: 0x976C, symBinAddr: 0x10000DB6C, symSize: 0x14 }
  - { offsetInCU: 0x154B8, offset: 0x154B8, size: 0x8, addend: 0x0, symName: __ZNSt3__116__list_node_baseIP4NodePvE6__selfB7v160006Ev, symObjAddr: 0x9780, symBinAddr: 0x10000DB80, symSize: 0x24 }
  - { offsetInCU: 0x154E3, offset: 0x154E3, size: 0x8, addend: 0x0, symName: __ZNSt3__114pointer_traitsIPNS_16__list_node_baseIP4NodePvEEE10pointer_toB7v160006ERS5_, symObjAddr: 0x97A4, symBinAddr: 0x10000DBA4, symSize: 0x14 }
  - { offsetInCU: 0x15506, offset: 0x15506, size: 0x8, addend: 0x0, symName: __ZNSt3__117__compressed_pairImNS_9allocatorINS_11__list_nodeIP4NodePvEEEEEC2B7v160006IiNS_18__default_init_tagEEEOT_OT0_, symObjAddr: 0x97B8, symBinAddr: 0x10000DBB8, symSize: 0x40 }
  - { offsetInCU: 0x1555E, offset: 0x1555E, size: 0x8, addend: 0x0, symName: __ZNSt3__122__compressed_pair_elemImLi0ELb0EEC2B7v160006IivEEOT_, symObjAddr: 0x97F8, symBinAddr: 0x10000DBF8, symSize: 0x24 }
  - { offsetInCU: 0x155A0, offset: 0x155A0, size: 0x8, addend: 0x0, symName: __ZNSt3__122__compressed_pair_elemINS_9allocatorINS_11__list_nodeIP4NodePvEEEELi1ELb1EEC2B7v160006ENS_18__default_init_tagE, symObjAddr: 0x981C, symBinAddr: 0x10000DC1C, symSize: 0x2C }
  - { offsetInCU: 0x155D5, offset: 0x155D5, size: 0x8, addend: 0x0, symName: __ZNSt3__19allocatorINS_11__list_nodeIP4NodePvEEEC2B7v160006Ev, symObjAddr: 0x9848, symBinAddr: 0x10000DC48, symSize: 0x2C }
  - { offsetInCU: 0x155FF, offset: 0x155FF, size: 0x8, addend: 0x0, symName: __ZNSt3__116__non_trivial_ifILb1ENS_9allocatorINS_11__list_nodeIP4NodePvEEEEEC2B7v160006Ev, symObjAddr: 0x9874, symBinAddr: 0x10000DC74, symSize: 0x14 }
  - { offsetInCU: 0x15629, offset: 0x15629, size: 0x8, addend: 0x0, symName: __ZNSt3__14listIP4NodeNS_9allocatorIS2_EEE5beginB7v160006Ev, symObjAddr: 0x9888, symBinAddr: 0x10000DC88, symSize: 0x2C }
  - { offsetInCU: 0x1564F, offset: 0x1564F, size: 0x8, addend: 0x0, symName: __ZNSt3__14listIP4NodeNS_9allocatorIS2_EEE3endB7v160006Ev, symObjAddr: 0x98B4, symBinAddr: 0x10000DCB4, symSize: 0x2C }
  - { offsetInCU: 0x15675, offset: 0x15675, size: 0x8, addend: 0x0, symName: __ZNKSt3__115__list_iteratorIP4NodePvEdeB7v160006Ev, symObjAddr: 0x9914, symBinAddr: 0x10000DD14, symSize: 0x2C }
  - { offsetInCU: 0x1569B, offset: 0x1569B, size: 0x8, addend: 0x0, symName: __ZNSt3__115__list_iteratorIP4NodePvEppB7v160006Ev, symObjAddr: 0x9940, symBinAddr: 0x10000DD40, symSize: 0x20 }
  - { offsetInCU: 0x156C1, offset: 0x156C1, size: 0x8, addend: 0x0, symName: __ZNSt3__110__list_impIP4NodeNS_9allocatorIS2_EEE5beginB7v160006Ev, symObjAddr: 0x9960, symBinAddr: 0x10000DD60, symSize: 0x30 }
  - { offsetInCU: 0x156E7, offset: 0x156E7, size: 0x8, addend: 0x0, symName: __ZNSt3__115__list_iteratorIP4NodePvEC1B7v160006EPNS_16__list_node_baseIS2_S3_EEPKv, symObjAddr: 0x9990, symBinAddr: 0x10000DD90, symSize: 0x3C }
  - { offsetInCU: 0x1572F, offset: 0x1572F, size: 0x8, addend: 0x0, symName: __ZNSt3__115__list_iteratorIP4NodePvEC2B7v160006EPNS_16__list_node_baseIS2_S3_EEPKv, symObjAddr: 0x99CC, symBinAddr: 0x10000DDCC, symSize: 0x24 }
  - { offsetInCU: 0x15777, offset: 0x15777, size: 0x8, addend: 0x0, symName: __ZNSt3__110__list_impIP4NodeNS_9allocatorIS2_EEE3endB7v160006Ev, symObjAddr: 0x99F0, symBinAddr: 0x10000DDF0, symSize: 0x3C }
  - { offsetInCU: 0x1579D, offset: 0x1579D, size: 0x8, addend: 0x0, symName: __ZNKSt3__110__list_impIP4NodeNS_9allocatorIS2_EEE13__end_as_linkB7v160006Ev, symObjAddr: 0x9A2C, symBinAddr: 0x10000DE2C, symSize: 0x28 }
  - { offsetInCU: 0x157C3, offset: 0x157C3, size: 0x8, addend: 0x0, symName: __ZNSt3__116__list_node_baseIP4NodePvE9__as_nodeB7v160006Ev, symObjAddr: 0x9A84, symBinAddr: 0x10000DE84, symSize: 0x24 }
  - { offsetInCU: 0x157E9, offset: 0x157E9, size: 0x8, addend: 0x0, symName: __ZNSt3__112basic_stringIcNS_11char_traitsIcEENS_9allocatorIcEEEC2B7v160006Ev, symObjAddr: 0x9AA8, symBinAddr: 0x10000DEA8, symSize: 0x54 }
  - { offsetInCU: 0x15813, offset: 0x15813, size: 0x8, addend: 0x0, symName: __ZNSt3__117__compressed_pairINS_12basic_stringIcNS_11char_traitsIcEENS_9allocatorIcEEE5__repES5_EC1B7v160006INS_18__default_init_tagESA_EEOT_OT0_, symObjAddr: 0x9AFC, symBinAddr: 0x10000DEFC, symSize: 0x3C }
  - { offsetInCU: 0x1586B, offset: 0x1586B, size: 0x8, addend: 0x0, symName: __ZNSt3__112basic_stringIcNS_11char_traitsIcEENS_9allocatorIcEEE14__default_initB7v160006Ev, symObjAddr: 0x9B48, symBinAddr: 0x10000DF48, symSize: 0x40 }
  - { offsetInCU: 0x15891, offset: 0x15891, size: 0x8, addend: 0x0, symName: __ZNSt3__117__compressed_pairINS_12basic_stringIcNS_11char_traitsIcEENS_9allocatorIcEEE5__repES5_EC2B7v160006INS_18__default_init_tagESA_EEOT_OT0_, symObjAddr: 0x9B88, symBinAddr: 0x10000DF88, symSize: 0x3C }
  - { offsetInCU: 0x158E9, offset: 0x158E9, size: 0x8, addend: 0x0, symName: __ZNSt3__122__compressed_pair_elemINS_12basic_stringIcNS_11char_traitsIcEENS_9allocatorIcEEE5__repELi0ELb0EEC2B7v160006ENS_18__default_init_tagE, symObjAddr: 0x9BC4, symBinAddr: 0x10000DFC4, symSize: 0x14 }
  - { offsetInCU: 0x1591E, offset: 0x1591E, size: 0x8, addend: 0x0, symName: __ZNSt3__122__compressed_pair_elemINS_9allocatorIcEELi1ELb1EEC2B7v160006ENS_18__default_init_tagE, symObjAddr: 0x9BD8, symBinAddr: 0x10000DFD8, symSize: 0x2C }
  - { offsetInCU: 0x15953, offset: 0x15953, size: 0x8, addend: 0x0, symName: __ZNSt3__19allocatorIcEC2B7v160006Ev, symObjAddr: 0x9C04, symBinAddr: 0x10000E004, symSize: 0x2C }
  - { offsetInCU: 0x1597D, offset: 0x1597D, size: 0x8, addend: 0x0, symName: __ZNSt3__116__non_trivial_ifILb1ENS_9allocatorIcEEEC2B7v160006Ev, symObjAddr: 0x9C30, symBinAddr: 0x10000E030, symSize: 0x14 }
  - { offsetInCU: 0x159A7, offset: 0x159A7, size: 0x8, addend: 0x0, symName: __ZNSt3__117__compressed_pairINS_12basic_stringIcNS_11char_traitsIcEENS_9allocatorIcEEE5__repES5_E5firstB7v160006Ev, symObjAddr: 0x9C44, symBinAddr: 0x10000E044, symSize: 0x24 }
  - { offsetInCU: 0x159CD, offset: 0x159CD, size: 0x8, addend: 0x0, symName: __ZNSt3__122__compressed_pair_elemINS_12basic_stringIcNS_11char_traitsIcEENS_9allocatorIcEEE5__repELi0ELb0EE5__getB7v160006Ev, symObjAddr: 0x9C68, symBinAddr: 0x10000E068, symSize: 0x14 }
  - { offsetInCU: 0x159F3, offset: 0x159F3, size: 0x8, addend: 0x0, symName: __ZNSt3__112basic_stringIcNS_11char_traitsIcEENS_9allocatorIcEEE6appendB7v160006ERKS5_, symObjAddr: 0x9C7C, symBinAddr: 0x10000E07C, symSize: 0x4C }
  - { offsetInCU: 0x15A28, offset: 0x15A28, size: 0x8, addend: 0x0, symName: __ZNKSt3__112basic_stringIcNS_11char_traitsIcEENS_9allocatorIcEEE4dataB7v160006Ev, symObjAddr: 0x9CC8, symBinAddr: 0x10000E0C8, symSize: 0x28 }
  - { offsetInCU: 0x15A4E, offset: 0x15A4E, size: 0x8, addend: 0x0, symName: __ZNKSt3__112basic_stringIcNS_11char_traitsIcEENS_9allocatorIcEEE4sizeB7v160006Ev, symObjAddr: 0x9CF0, symBinAddr: 0x10000E0F0, symSize: 0x54 }
  - { offsetInCU: 0x15A74, offset: 0x15A74, size: 0x8, addend: 0x0, symName: __ZNKSt3__112basic_stringIcNS_11char_traitsIcEENS_9allocatorIcEEE13__get_pointerB7v160006Ev, symObjAddr: 0x9D58, symBinAddr: 0x10000E158, symSize: 0x54 }
  - { offsetInCU: 0x15A9A, offset: 0x15A9A, size: 0x8, addend: 0x0, symName: __ZNKSt3__112basic_stringIcNS_11char_traitsIcEENS_9allocatorIcEEE9__is_longB7v160006Ev, symObjAddr: 0x9DAC, symBinAddr: 0x10000E1AC, symSize: 0x38 }
  - { offsetInCU: 0x15AC0, offset: 0x15AC0, size: 0x8, addend: 0x0, symName: __ZNKSt3__112basic_stringIcNS_11char_traitsIcEENS_9allocatorIcEEE18__get_long_pointerB7v160006Ev, symObjAddr: 0x9DE4, symBinAddr: 0x10000E1E4, symSize: 0x28 }
  - { offsetInCU: 0x15AE6, offset: 0x15AE6, size: 0x8, addend: 0x0, symName: __ZNKSt3__112basic_stringIcNS_11char_traitsIcEENS_9allocatorIcEEE19__get_short_pointerB7v160006Ev, symObjAddr: 0x9E0C, symBinAddr: 0x10000E20C, symSize: 0x28 }
  - { offsetInCU: 0x15B0C, offset: 0x15B0C, size: 0x8, addend: 0x0, symName: __ZNKSt3__117__compressed_pairINS_12basic_stringIcNS_11char_traitsIcEENS_9allocatorIcEEE5__repES5_E5firstB7v160006Ev, symObjAddr: 0x9E34, symBinAddr: 0x10000E234, symSize: 0x24 }
  - { offsetInCU: 0x15B32, offset: 0x15B32, size: 0x8, addend: 0x0, symName: __ZNKSt3__122__compressed_pair_elemINS_12basic_stringIcNS_11char_traitsIcEENS_9allocatorIcEEE5__repELi0ELb0EE5__getB7v160006Ev, symObjAddr: 0x9E58, symBinAddr: 0x10000E258, symSize: 0x14 }
  - { offsetInCU: 0x15B58, offset: 0x15B58, size: 0x8, addend: 0x0, symName: __ZNSt3__114pointer_traitsIPKcE10pointer_toB7v160006ERS1_, symObjAddr: 0x9E6C, symBinAddr: 0x10000E26C, symSize: 0x14 }
  - { offsetInCU: 0x15B7B, offset: 0x15B7B, size: 0x8, addend: 0x0, symName: __ZNKSt3__112basic_stringIcNS_11char_traitsIcEENS_9allocatorIcEEE15__get_long_sizeB7v160006Ev, symObjAddr: 0x9E80, symBinAddr: 0x10000E280, symSize: 0x28 }
  - { offsetInCU: 0x15BA1, offset: 0x15BA1, size: 0x8, addend: 0x0, symName: __ZNKSt3__112basic_stringIcNS_11char_traitsIcEENS_9allocatorIcEEE16__get_short_sizeB7v160006Ev, symObjAddr: 0x9EA8, symBinAddr: 0x10000E2A8, symSize: 0x34 }
  - { offsetInCU: 0x15BC7, offset: 0x15BC7, size: 0x8, addend: 0x0, symName: __ZNSt3__112basic_stringIcNS_11char_traitsIcEENS_9allocatorIcEEEC2B7v160006IDnEEPKc, symObjAddr: 0x9EDC, symBinAddr: 0x10000E2DC, symSize: 0x60 }
  - { offsetInCU: 0x15C05, offset: 0x15C05, size: 0x8, addend: 0x0, symName: __ZNSt3__111char_traitsIcE6lengthEPKc, symObjAddr: 0x9F3C, symBinAddr: 0x10000E33C, symSize: 0x34 }
  - { offsetInCU: 0x15C28, offset: 0x15C28, size: 0x8, addend: 0x0, symName: __ZNSt3__112basic_stringIcNS_11char_traitsIcEENS_9allocatorIcEEEC1B7v160006EOS5_, symObjAddr: 0x9F94, symBinAddr: 0x10000E394, symSize: 0x34 }
  - { offsetInCU: 0x15C61, offset: 0x15C61, size: 0x8, addend: 0x0, symName: __ZNSt3__112basic_stringIcNS_11char_traitsIcEENS_9allocatorIcEEEC2B7v160006EOS5_, symObjAddr: 0x9FC8, symBinAddr: 0x10000E3C8, symSize: 0x80 }
  - { offsetInCU: 0x15C9A, offset: 0x15C9A, size: 0x8, addend: 0x0, symName: __ZN2yy6parser5stackINS0_17stack_symbol_typeENSt3__16vectorIS2_NS3_9allocatorIS2_EEEEEC2Em, symObjAddr: 0xA05C, symBinAddr: 0x10000E45C, symSize: 0x3C }
  - { offsetInCU: 0x15CD3, offset: 0x15CD3, size: 0x8, addend: 0x0, symName: __ZNSt3__16vectorIN2yy6parser17stack_symbol_typeENS_9allocatorIS3_EEEC1Em, symObjAddr: 0xA098, symBinAddr: 0x10000E498, symSize: 0x34 }
  - { offsetInCU: 0x15D0E, offset: 0x15D0E, size: 0x8, addend: 0x0, symName: __ZNSt3__16vectorIN2yy6parser17stack_symbol_typeENS_9allocatorIS3_EEEC2Em, symObjAddr: 0xA0CC, symBinAddr: 0x10000E4CC, symSize: 0xE0 }
  - { offsetInCU: 0x15D64, offset: 0x15D64, size: 0x8, addend: 0x0, symName: __ZNSt3__117__compressed_pairIPN2yy6parser17stack_symbol_typeENS_9allocatorIS3_EEEC1B7v160006IDnNS_18__default_init_tagEEEOT_OT0_, symObjAddr: 0xA1AC, symBinAddr: 0x10000E5AC, symSize: 0x3C }
  - { offsetInCU: 0x15DBC, offset: 0x15DBC, size: 0x8, addend: 0x0, symName: __ZNSt3__16vectorIN2yy6parser17stack_symbol_typeENS_9allocatorIS3_EEE11__vallocateB7v160006Em, symObjAddr: 0xA238, symBinAddr: 0x10000E638, symSize: 0xAC }
  - { offsetInCU: 0x15E00, offset: 0x15E00, size: 0x8, addend: 0x0, symName: __ZNSt3__16vectorIN2yy6parser17stack_symbol_typeENS_9allocatorIS3_EEE18__construct_at_endEm, symObjAddr: 0xA2E4, symBinAddr: 0x10000E6E4, symSize: 0xC8 }
  - { offsetInCU: 0x15E73, offset: 0x15E73, size: 0x8, addend: 0x0, symName: __ZNSt3__128__exception_guard_exceptionsINS_6vectorIN2yy6parser17stack_symbol_typeENS_9allocatorIS4_EEE16__destroy_vectorEE10__completeB7v160006Ev, symObjAddr: 0xA3AC, symBinAddr: 0x10000E7AC, symSize: 0x1C }
  - { offsetInCU: 0x15E99, offset: 0x15E99, size: 0x8, addend: 0x0, symName: __ZNSt3__128__exception_guard_exceptionsINS_6vectorIN2yy6parser17stack_symbol_typeENS_9allocatorIS4_EEE16__destroy_vectorEED1B7v160006Ev, symObjAddr: 0xA3C8, symBinAddr: 0x10000E7C8, symSize: 0x2C }
  - { offsetInCU: 0x15EC3, offset: 0x15EC3, size: 0x8, addend: 0x0, symName: __ZNSt3__117__compressed_pairIPN2yy6parser17stack_symbol_typeENS_9allocatorIS3_EEEC2B7v160006IDnNS_18__default_init_tagEEEOT_OT0_, symObjAddr: 0xA3F4, symBinAddr: 0x10000E7F4, symSize: 0x40 }
  - { offsetInCU: 0x15F1B, offset: 0x15F1B, size: 0x8, addend: 0x0, symName: __ZNSt3__122__compressed_pair_elemIPN2yy6parser17stack_symbol_typeELi0ELb0EEC2B7v160006IDnvEEOT_, symObjAddr: 0xA434, symBinAddr: 0x10000E834, symSize: 0x1C }
  - { offsetInCU: 0x15F5D, offset: 0x15F5D, size: 0x8, addend: 0x0, symName: __ZNSt3__122__compressed_pair_elemINS_9allocatorIN2yy6parser17stack_symbol_typeEEELi1ELb1EEC2B7v160006ENS_18__default_init_tagE, symObjAddr: 0xA450, symBinAddr: 0x10000E850, symSize: 0x2C }
  - { offsetInCU: 0x15F92, offset: 0x15F92, size: 0x8, addend: 0x0, symName: __ZNSt3__19allocatorIN2yy6parser17stack_symbol_typeEEC2B7v160006Ev, symObjAddr: 0xA47C, symBinAddr: 0x10000E87C, symSize: 0x2C }
  - { offsetInCU: 0x15FBC, offset: 0x15FBC, size: 0x8, addend: 0x0, symName: __ZNSt3__116__non_trivial_ifILb1ENS_9allocatorIN2yy6parser17stack_symbol_typeEEEEC2B7v160006Ev, symObjAddr: 0xA4A8, symBinAddr: 0x10000E8A8, symSize: 0x14 }
  - { offsetInCU: 0x15FE6, offset: 0x15FE6, size: 0x8, addend: 0x0, symName: __ZNSt3__128__exception_guard_exceptionsINS_6vectorIN2yy6parser17stack_symbol_typeENS_9allocatorIS4_EEE16__destroy_vectorEEC1B7v160006ES8_, symObjAddr: 0xA4BC, symBinAddr: 0x10000E8BC, symSize: 0x34 }
  - { offsetInCU: 0x1601E, offset: 0x1601E, size: 0x8, addend: 0x0, symName: __ZNSt3__128__exception_guard_exceptionsINS_6vectorIN2yy6parser17stack_symbol_typeENS_9allocatorIS4_EEE16__destroy_vectorEEC2B7v160006ES8_, symObjAddr: 0xA4F0, symBinAddr: 0x10000E8F0, symSize: 0x24 }
  - { offsetInCU: 0x16056, offset: 0x16056, size: 0x8, addend: 0x0, symName: __ZNKSt3__16vectorIN2yy6parser17stack_symbol_typeENS_9allocatorIS3_EEE8max_sizeEv, symObjAddr: 0xA514, symBinAddr: 0x10000E914, symSize: 0x60 }
  - { offsetInCU: 0x1607E, offset: 0x1607E, size: 0x8, addend: 0x0, symName: __ZNKSt3__16vectorIN2yy6parser17stack_symbol_typeENS_9allocatorIS3_EEE20__throw_length_errorB7v160006Ev, symObjAddr: 0xA574, symBinAddr: 0x10000E974, symSize: 0x1C }
  - { offsetInCU: 0x160A4, offset: 0x160A4, size: 0x8, addend: 0x0, symName: __ZNSt3__16vectorIN2yy6parser17stack_symbol_typeENS_9allocatorIS3_EEE9__end_capB7v160006Ev, symObjAddr: 0xA5D0, symBinAddr: 0x10000E9D0, symSize: 0x28 }
  - { offsetInCU: 0x160CA, offset: 0x160CA, size: 0x8, addend: 0x0, symName: __ZNKSt3__16vectorIN2yy6parser17stack_symbol_typeENS_9allocatorIS3_EEE14__annotate_newB7v160006Em, symObjAddr: 0xA5F8, symBinAddr: 0x10000E9F8, symSize: 0xAC }
  - { offsetInCU: 0x16109, offset: 0x16109, size: 0x8, addend: 0x0, symName: __ZNSt3__116allocator_traitsINS_9allocatorIN2yy6parser17stack_symbol_typeEEEE8max_sizeB7v160006IS5_vEEmRKS5_, symObjAddr: 0xA6D0, symBinAddr: 0x10000EAD0, symSize: 0x24 }
  - { offsetInCU: 0x16137, offset: 0x16137, size: 0x8, addend: 0x0, symName: __ZNKSt3__16vectorIN2yy6parser17stack_symbol_typeENS_9allocatorIS3_EEE7__allocB7v160006Ev, symObjAddr: 0xA6F4, symBinAddr: 0x10000EAF4, symSize: 0x28 }
  - { offsetInCU: 0x1615D, offset: 0x1615D, size: 0x8, addend: 0x0, symName: __ZNSt3__114numeric_limitsIlE3maxB7v160006Ev, symObjAddr: 0xA71C, symBinAddr: 0x10000EB1C, symSize: 0x14 }
  - { offsetInCU: 0x1617B, offset: 0x1617B, size: 0x8, addend: 0x0, symName: __ZNKSt3__16__lessImmEclB7v160006ERKmS3_, symObjAddr: 0xA784, symBinAddr: 0x10000EB84, symSize: 0x34 }
  - { offsetInCU: 0x161BD, offset: 0x161BD, size: 0x8, addend: 0x0, symName: __ZNKSt3__19allocatorIN2yy6parser17stack_symbol_typeEE8max_sizeB7v160006Ev, symObjAddr: 0xA7B8, symBinAddr: 0x10000EBB8, symSize: 0x14 }
  - { offsetInCU: 0x161E3, offset: 0x161E3, size: 0x8, addend: 0x0, symName: __ZNKSt3__117__compressed_pairIPN2yy6parser17stack_symbol_typeENS_9allocatorIS3_EEE6secondB7v160006Ev, symObjAddr: 0xA7CC, symBinAddr: 0x10000EBCC, symSize: 0x24 }
  - { offsetInCU: 0x16209, offset: 0x16209, size: 0x8, addend: 0x0, symName: __ZNKSt3__122__compressed_pair_elemINS_9allocatorIN2yy6parser17stack_symbol_typeEEELi1ELb1EE5__getB7v160006Ev, symObjAddr: 0xA7F0, symBinAddr: 0x10000EBF0, symSize: 0x14 }
  - { offsetInCU: 0x1622F, offset: 0x1622F, size: 0x8, addend: 0x0, symName: __ZNSt3__123__libcpp_numeric_limitsIlLb1EE3maxB7v160006Ev, symObjAddr: 0xA804, symBinAddr: 0x10000EC04, symSize: 0x8 }
  - { offsetInCU: 0x16243, offset: 0x16243, size: 0x8, addend: 0x0, symName: __ZNSt12length_errorC1B7v160006EPKc, symObjAddr: 0xA870, symBinAddr: 0x10000EC70, symSize: 0x34 }
  - { offsetInCU: 0x1627B, offset: 0x1627B, size: 0x8, addend: 0x0, symName: __ZNSt12length_errorC2B7v160006EPKc, symObjAddr: 0xA8A4, symBinAddr: 0x10000ECA4, symSize: 0x4C }
  - { offsetInCU: 0x162B3, offset: 0x162B3, size: 0x8, addend: 0x0, symName: __ZNSt3__19allocatorIN2yy6parser17stack_symbol_typeEE8allocateB7v160006Em, symObjAddr: 0xA8F0, symBinAddr: 0x10000ECF0, symSize: 0x58 }
  - { offsetInCU: 0x162E7, offset: 0x162E7, size: 0x8, addend: 0x0, symName: __ZNSt3__117__compressed_pairIPN2yy6parser17stack_symbol_typeENS_9allocatorIS3_EEE5firstB7v160006Ev, symObjAddr: 0xA9C8, symBinAddr: 0x10000EDC8, symSize: 0x24 }
  - { offsetInCU: 0x1630D, offset: 0x1630D, size: 0x8, addend: 0x0, symName: __ZNSt3__122__compressed_pair_elemIPN2yy6parser17stack_symbol_typeELi0ELb0EE5__getB7v160006Ev, symObjAddr: 0xA9EC, symBinAddr: 0x10000EDEC, symSize: 0x14 }
  - { offsetInCU: 0x1634C, offset: 0x1634C, size: 0x8, addend: 0x0, symName: __ZNSt3__16vectorIN2yy6parser17stack_symbol_typeENS_9allocatorIS3_EEE21_ConstructTransactionC1B7v160006ERS6_m, symObjAddr: 0xAA00, symBinAddr: 0x10000EE00, symSize: 0x3C }
  - { offsetInCU: 0x16394, offset: 0x16394, size: 0x8, addend: 0x0, symName: __ZNSt3__116allocator_traitsINS_9allocatorIN2yy6parser17stack_symbol_typeEEEE9constructB7v160006IS4_JEvEEvRS5_PT_DpOT0_, symObjAddr: 0xAA3C, symBinAddr: 0x10000EE3C, symSize: 0x2C }
  - { offsetInCU: 0x163D6, offset: 0x163D6, size: 0x8, addend: 0x0, symName: __ZNSt3__16vectorIN2yy6parser17stack_symbol_typeENS_9allocatorIS3_EEE21_ConstructTransactionD1B7v160006Ev, symObjAddr: 0xAA68, symBinAddr: 0x10000EE68, symSize: 0x2C }
  - { offsetInCU: 0x16400, offset: 0x16400, size: 0x8, addend: 0x0, symName: __ZNSt3__16vectorIN2yy6parser17stack_symbol_typeENS_9allocatorIS3_EEE21_ConstructTransactionC2B7v160006ERS6_m, symObjAddr: 0xAA94, symBinAddr: 0x10000EE94, symSize: 0x44 }
  - { offsetInCU: 0x16448, offset: 0x16448, size: 0x8, addend: 0x0, symName: __ZNSt3__19allocatorIN2yy6parser17stack_symbol_typeEE9constructB7v160006IS3_JEEEvPT_DpOT0_, symObjAddr: 0xAAD8, symBinAddr: 0x10000EED8, symSize: 0x28 }
  - { offsetInCU: 0x1648A, offset: 0x1648A, size: 0x8, addend: 0x0, symName: __ZNSt3__16vectorIN2yy6parser17stack_symbol_typeENS_9allocatorIS3_EEE21_ConstructTransactionD2B7v160006Ev, symObjAddr: 0xAB00, symBinAddr: 0x10000EF00, symSize: 0x20 }
  - { offsetInCU: 0x164B4, offset: 0x164B4, size: 0x8, addend: 0x0, symName: __ZNSt3__128__exception_guard_exceptionsINS_6vectorIN2yy6parser17stack_symbol_typeENS_9allocatorIS4_EEE16__destroy_vectorEED2B7v160006Ev, symObjAddr: 0xAB20, symBinAddr: 0x10000EF20, symSize: 0x50 }
  - { offsetInCU: 0x164DE, offset: 0x164DE, size: 0x8, addend: 0x0, symName: __ZN2yy6parser12basic_symbolINS0_8by_stateEE5clearEv, symObjAddr: 0xAB70, symBinAddr: 0x10000EF70, symSize: 0xA4 }
  - { offsetInCU: 0x16522, offset: 0x16522, size: 0x8, addend: 0x0, symName: __ZN2yy6parser10value_type7destroyIP4NodeEEvv, symObjAddr: 0xAC14, symBinAddr: 0x10000F014, symSize: 0x24 }
  - { offsetInCU: 0x16551, offset: 0x16551, size: 0x8, addend: 0x0, symName: __ZN2yy6parser10value_type7destroyINSt3__112basic_stringIcNS3_11char_traitsIcEENS3_9allocatorIcEEEEEEvv, symObjAddr: 0xAC38, symBinAddr: 0x10000F038, symSize: 0x28 }
  - { offsetInCU: 0x16580, offset: 0x16580, size: 0x8, addend: 0x0, symName: __ZN2yy6parser10value_type7emplaceIP4NodeJS4_EEERT_DpOT0_, symObjAddr: 0xAC60, symBinAddr: 0x10000F060, symSize: 0x34 }
  - { offsetInCU: 0x165C8, offset: 0x165C8, size: 0x8, addend: 0x0, symName: __ZN2yy6parser10value_type5yyas_IP4NodeEEPT_v, symObjAddr: 0xAC94, symBinAddr: 0x10000F094, symSize: 0x1C }
  - { offsetInCU: 0x1660B, offset: 0x1660B, size: 0x8, addend: 0x0, symName: __ZN2yy6parser10value_type7emplaceINSt3__112basic_stringIcNS3_11char_traitsIcEENS3_9allocatorIcEEEEJS9_EEERT_DpOT0_, symObjAddr: 0xACB0, symBinAddr: 0x10000F0B0, symSize: 0x38 }
  - { offsetInCU: 0x16653, offset: 0x16653, size: 0x8, addend: 0x0, symName: __ZN2yy6parser10value_type5yyas_INSt3__112basic_stringIcNS3_11char_traitsIcEENS3_9allocatorIcEEEEEEPT_v, symObjAddr: 0xACE8, symBinAddr: 0x10000F0E8, symSize: 0x1C }
  - { offsetInCU: 0x16691, offset: 0x16691, size: 0x8, addend: 0x0, symName: __ZNSt3__16vectorIN2yy6parser17stack_symbol_typeENS_9allocatorIS3_EEE9push_backB7v160006EOS3_, symObjAddr: 0xAD04, symBinAddr: 0x10000F104, symSize: 0x6C }
  - { offsetInCU: 0x166C8, offset: 0x166C8, size: 0x8, addend: 0x0, symName: __ZN2yy6parser12basic_symbolINS0_8by_stateEE4moveERS3_, symObjAddr: 0xAD70, symBinAddr: 0x10000F170, symSize: 0x9C }
  - { offsetInCU: 0x166FF, offset: 0x166FF, size: 0x8, addend: 0x0, symName: __ZNSt3__16vectorIN2yy6parser17stack_symbol_typeENS_9allocatorIS3_EEE22__construct_one_at_endB7v160006IJS3_EEEvDpOT_, symObjAddr: 0xAE0C, symBinAddr: 0x10000F20C, symSize: 0x90 }
  - { offsetInCU: 0x1674E, offset: 0x1674E, size: 0x8, addend: 0x0, symName: __ZNSt3__16vectorIN2yy6parser17stack_symbol_typeENS_9allocatorIS3_EEE21__push_back_slow_pathIS3_EEvOT_, symObjAddr: 0xAE9C, symBinAddr: 0x10000F29C, symSize: 0xD8 }
  - { offsetInCU: 0x167AC, offset: 0x167AC, size: 0x8, addend: 0x0, symName: __ZNSt3__116allocator_traitsINS_9allocatorIN2yy6parser17stack_symbol_typeEEEE9constructB7v160006IS4_JS4_EvEEvRS5_PT_DpOT0_, symObjAddr: 0xAF74, symBinAddr: 0x10000F374, symSize: 0x34 }
  - { offsetInCU: 0x16803, offset: 0x16803, size: 0x8, addend: 0x0, symName: __ZNSt3__19allocatorIN2yy6parser17stack_symbol_typeEE9constructB7v160006IS3_JS3_EEEvPT_DpOT0_, symObjAddr: 0xAFA8, symBinAddr: 0x10000F3A8, symSize: 0x30 }
  - { offsetInCU: 0x16859, offset: 0x16859, size: 0x8, addend: 0x0, symName: __ZNKSt3__16vectorIN2yy6parser17stack_symbol_typeENS_9allocatorIS3_EEE11__recommendB7v160006Em, symObjAddr: 0xAFD8, symBinAddr: 0x10000F3D8, symSize: 0xB4 }
  - { offsetInCU: 0x168AE, offset: 0x168AE, size: 0x8, addend: 0x0, symName: __ZNSt3__114__split_bufferIN2yy6parser17stack_symbol_typeERNS_9allocatorIS3_EEEC1EmmS6_, symObjAddr: 0xB08C, symBinAddr: 0x10000F48C, symSize: 0x44 }
  - { offsetInCU: 0x16904, offset: 0x16904, size: 0x8, addend: 0x0, symName: __ZNSt3__114__split_bufferIN2yy6parser17stack_symbol_typeERNS_9allocatorIS3_EEED1Ev, symObjAddr: 0xB1E8, symBinAddr: 0x10000F5E8, symSize: 0x2C }
  - { offsetInCU: 0x16930, offset: 0x16930, size: 0x8, addend: 0x0, symName: __ZNSt3__114__split_bufferIN2yy6parser17stack_symbol_typeERNS_9allocatorIS3_EEEC2EmmS6_, symObjAddr: 0xB294, symBinAddr: 0x10000F694, symSize: 0xD4 }
  - { offsetInCU: 0x169A4, offset: 0x169A4, size: 0x8, addend: 0x0, symName: __ZNSt3__117__compressed_pairIPN2yy6parser17stack_symbol_typeERNS_9allocatorIS3_EEEC1B7v160006IDnS7_EEOT_OT0_, symObjAddr: 0xB368, symBinAddr: 0x10000F768, symSize: 0x3C }
  - { offsetInCU: 0x169FC, offset: 0x169FC, size: 0x8, addend: 0x0, symName: __ZNSt3__114__split_bufferIN2yy6parser17stack_symbol_typeERNS_9allocatorIS3_EEE7__allocB7v160006Ev, symObjAddr: 0xB3A4, symBinAddr: 0x10000F7A4, symSize: 0x28 }
  - { offsetInCU: 0x16A22, offset: 0x16A22, size: 0x8, addend: 0x0, symName: __ZNSt3__114__split_bufferIN2yy6parser17stack_symbol_typeERNS_9allocatorIS3_EEE9__end_capB7v160006Ev, symObjAddr: 0xB3CC, symBinAddr: 0x10000F7CC, symSize: 0x28 }
  - { offsetInCU: 0x16A48, offset: 0x16A48, size: 0x8, addend: 0x0, symName: __ZNSt3__117__compressed_pairIPN2yy6parser17stack_symbol_typeERNS_9allocatorIS3_EEEC2B7v160006IDnS7_EEOT_OT0_, symObjAddr: 0xB3F4, symBinAddr: 0x10000F7F4, symSize: 0x48 }
  - { offsetInCU: 0x16AA0, offset: 0x16AA0, size: 0x8, addend: 0x0, symName: __ZNSt3__122__compressed_pair_elemIRNS_9allocatorIN2yy6parser17stack_symbol_typeEEELi1ELb0EEC2B7v160006IS6_vEEOT_, symObjAddr: 0xB43C, symBinAddr: 0x10000F83C, symSize: 0x20 }
  - { offsetInCU: 0x16AE2, offset: 0x16AE2, size: 0x8, addend: 0x0, symName: __ZNSt3__117__compressed_pairIPN2yy6parser17stack_symbol_typeERNS_9allocatorIS3_EEE6secondB7v160006Ev, symObjAddr: 0xB45C, symBinAddr: 0x10000F85C, symSize: 0x28 }
  - { offsetInCU: 0x16B08, offset: 0x16B08, size: 0x8, addend: 0x0, symName: __ZNSt3__122__compressed_pair_elemIRNS_9allocatorIN2yy6parser17stack_symbol_typeEEELi1ELb0EE5__getB7v160006Ev, symObjAddr: 0xB484, symBinAddr: 0x10000F884, symSize: 0x18 }
  - { offsetInCU: 0x16B2E, offset: 0x16B2E, size: 0x8, addend: 0x0, symName: __ZNSt3__117__compressed_pairIPN2yy6parser17stack_symbol_typeERNS_9allocatorIS3_EEE5firstB7v160006Ev, symObjAddr: 0xB49C, symBinAddr: 0x10000F89C, symSize: 0x24 }
  - { offsetInCU: 0x16B54, offset: 0x16B54, size: 0x8, addend: 0x0, symName: __ZNSt3__116reverse_iteratorIPN2yy6parser17stack_symbol_typeEEC1B7v160006ES4_, symObjAddr: 0xB5EC, symBinAddr: 0x10000F9EC, symSize: 0x34 }
  - { offsetInCU: 0x16B8C, offset: 0x16B8C, size: 0x8, addend: 0x0, symName: __ZNKSt3__116reverse_iteratorIPN2yy6parser17stack_symbol_typeEE4baseB7v160006Ev, symObjAddr: 0xB620, symBinAddr: 0x10000FA20, symSize: 0x18 }
  - { offsetInCU: 0x16BB2, offset: 0x16BB2, size: 0x8, addend: 0x0, symName: __ZNSt3__129_AllocatorDestroyRangeReverseINS_9allocatorIN2yy6parser17stack_symbol_typeEEENS_16reverse_iteratorIPS4_EEEC1B7v160006ERS5_RS8_SB_, symObjAddr: 0xB6D0, symBinAddr: 0x10000FAD0, symSize: 0x44 }
  - { offsetInCU: 0x16C09, offset: 0x16C09, size: 0x8, addend: 0x0, symName: __ZNKSt3__116reverse_iteratorIPN2yy6parser17stack_symbol_typeEEdeB7v160006Ev, symObjAddr: 0xB780, symBinAddr: 0x10000FB80, symSize: 0x28 }
  - { offsetInCU: 0x16C3D, offset: 0x16C3D, size: 0x8, addend: 0x0, symName: __ZNSt3__116reverse_iteratorIPN2yy6parser17stack_symbol_typeEEppB7v160006Ev, symObjAddr: 0xB7A8, symBinAddr: 0x10000FBA8, symSize: 0x20 }
  - { offsetInCU: 0x16C63, offset: 0x16C63, size: 0x8, addend: 0x0, symName: __ZNSt3__128__exception_guard_exceptionsINS_29_AllocatorDestroyRangeReverseINS_9allocatorIN2yy6parser17stack_symbol_typeEEENS_16reverse_iteratorIPS5_EEEEE10__completeB7v160006Ev, symObjAddr: 0xB7C8, symBinAddr: 0x10000FBC8, symSize: 0x1C }
  - { offsetInCU: 0x16C89, offset: 0x16C89, size: 0x8, addend: 0x0, symName: __ZNSt3__128__exception_guard_exceptionsINS_29_AllocatorDestroyRangeReverseINS_9allocatorIN2yy6parser17stack_symbol_typeEEENS_16reverse_iteratorIPS5_EEEEED1B7v160006Ev, symObjAddr: 0xB7E4, symBinAddr: 0x10000FBE4, symSize: 0x2C }
  - { offsetInCU: 0x16CB3, offset: 0x16CB3, size: 0x8, addend: 0x0, symName: __ZNSt3__128__exception_guard_exceptionsINS_29_AllocatorDestroyRangeReverseINS_9allocatorIN2yy6parser17stack_symbol_typeEEENS_16reverse_iteratorIPS5_EEEEEC1B7v160006ESA_, symObjAddr: 0xB810, symBinAddr: 0x10000FC10, symSize: 0x34 }
  - { offsetInCU: 0x16CEC, offset: 0x16CEC, size: 0x8, addend: 0x0, symName: __ZNSt3__128__exception_guard_exceptionsINS_29_AllocatorDestroyRangeReverseINS_9allocatorIN2yy6parser17stack_symbol_typeEEENS_16reverse_iteratorIPS5_EEEEEC2B7v160006ESA_, symObjAddr: 0xB844, symBinAddr: 0x10000FC44, symSize: 0x30 }
  - { offsetInCU: 0x16D25, offset: 0x16D25, size: 0x8, addend: 0x0, symName: __ZNSt3__129_AllocatorDestroyRangeReverseINS_9allocatorIN2yy6parser17stack_symbol_typeEEENS_16reverse_iteratorIPS4_EEEC2B7v160006ERS5_RS8_SB_, symObjAddr: 0xB874, symBinAddr: 0x10000FC74, symSize: 0x38 }
  - { offsetInCU: 0x16D81, offset: 0x16D81, size: 0x8, addend: 0x0, symName: __ZNSt3__119__to_address_helperINS_16reverse_iteratorIPN2yy6parser17stack_symbol_typeEEEvE6__callB7v160006ERKS6_, symObjAddr: 0xB8AC, symBinAddr: 0x10000FCAC, symSize: 0x38 }
  - { offsetInCU: 0x16DA4, offset: 0x16DA4, size: 0x8, addend: 0x0, symName: __ZNKSt3__116reverse_iteratorIPN2yy6parser17stack_symbol_typeEEptB7v160006Ev, symObjAddr: 0xB8E4, symBinAddr: 0x10000FCE4, symSize: 0x24 }
  - { offsetInCU: 0x16DCA, offset: 0x16DCA, size: 0x8, addend: 0x0, symName: __ZNSt3__128__exception_guard_exceptionsINS_29_AllocatorDestroyRangeReverseINS_9allocatorIN2yy6parser17stack_symbol_typeEEENS_16reverse_iteratorIPS5_EEEEED2B7v160006Ev, symObjAddr: 0xB908, symBinAddr: 0x10000FD08, symSize: 0x50 }
  - { offsetInCU: 0x16DF4, offset: 0x16DF4, size: 0x8, addend: 0x0, symName: __ZNKSt3__129_AllocatorDestroyRangeReverseINS_9allocatorIN2yy6parser17stack_symbol_typeEEENS_16reverse_iteratorIPS4_EEEclB7v160006Ev, symObjAddr: 0xB958, symBinAddr: 0x10000FD58, symSize: 0xB4 }
  - { offsetInCU: 0x16E1B, offset: 0x16E1B, size: 0x8, addend: 0x0, symName: __ZNSt3__116reverse_iteratorINS0_IPN2yy6parser17stack_symbol_typeEEEEC1B7v160006ES5_, symObjAddr: 0xBA7C, symBinAddr: 0x10000FE7C, symSize: 0x3C }
  - { offsetInCU: 0x16E53, offset: 0x16E53, size: 0x8, addend: 0x0, symName: __ZNSt3__116reverse_iteratorINS0_IPN2yy6parser17stack_symbol_typeEEEEppB7v160006Ev, symObjAddr: 0xBB3C, symBinAddr: 0x10000FF3C, symSize: 0x30 }
  - { offsetInCU: 0x16E79, offset: 0x16E79, size: 0x8, addend: 0x0, symName: __ZNKSt3__116reverse_iteratorINS0_IPN2yy6parser17stack_symbol_typeEEEE4baseB7v160006Ev, symObjAddr: 0xBB6C, symBinAddr: 0x10000FF6C, symSize: 0x24 }
  - { offsetInCU: 0x16EA4, offset: 0x16EA4, size: 0x8, addend: 0x0, symName: __ZNSt3__119__to_address_helperINS_16reverse_iteratorINS1_IPN2yy6parser17stack_symbol_typeEEEEEvE6__callB7v160006ERKS7_, symObjAddr: 0xBB90, symBinAddr: 0x10000FF90, symSize: 0x38 }
  - { offsetInCU: 0x16EC7, offset: 0x16EC7, size: 0x8, addend: 0x0, symName: __ZNKSt3__116reverse_iteratorINS0_IPN2yy6parser17stack_symbol_typeEEEEptB7v160006Ev, symObjAddr: 0xBBC8, symBinAddr: 0x10000FFC8, symSize: 0x24 }
  - { offsetInCU: 0x16EED, offset: 0x16EED, size: 0x8, addend: 0x0, symName: __ZNKSt3__116reverse_iteratorINS0_IPN2yy6parser17stack_symbol_typeEEEEdeB7v160006Ev, symObjAddr: 0xBBEC, symBinAddr: 0x10000FFEC, symSize: 0x34 }
  - { offsetInCU: 0x16F21, offset: 0x16F21, size: 0x8, addend: 0x0, symName: __ZNSt3__116reverse_iteratorIPN2yy6parser17stack_symbol_typeEEmmB7v160006Ev, symObjAddr: 0xBC20, symBinAddr: 0x100010020, symSize: 0x20 }
  - { offsetInCU: 0x16F47, offset: 0x16F47, size: 0x8, addend: 0x0, symName: __ZNSt3__116reverse_iteratorINS0_IPN2yy6parser17stack_symbol_typeEEEEC2B7v160006ES5_, symObjAddr: 0xBC40, symBinAddr: 0x100010040, symSize: 0x2C }
  - { offsetInCU: 0x16F7F, offset: 0x16F7F, size: 0x8, addend: 0x0, symName: __ZNSt3__116reverse_iteratorIPN2yy6parser17stack_symbol_typeEEC2B7v160006ES4_, symObjAddr: 0xBC6C, symBinAddr: 0x10001006C, symSize: 0x28 }
  - { offsetInCU: 0x16FB7, offset: 0x16FB7, size: 0x8, addend: 0x0, symName: __ZNSt3__114__split_bufferIN2yy6parser17stack_symbol_typeERNS_9allocatorIS3_EEED2Ev, symObjAddr: 0xBC94, symBinAddr: 0x100010094, symSize: 0x8C }
  - { offsetInCU: 0x16FE3, offset: 0x16FE3, size: 0x8, addend: 0x0, symName: __ZNSt3__114__split_bufferIN2yy6parser17stack_symbol_typeERNS_9allocatorIS3_EEE5clearB7v160006Ev, symObjAddr: 0xBD20, symBinAddr: 0x100010120, symSize: 0x28 }
  - { offsetInCU: 0x17009, offset: 0x17009, size: 0x8, addend: 0x0, symName: __ZNKSt3__114__split_bufferIN2yy6parser17stack_symbol_typeERNS_9allocatorIS3_EEE8capacityB7v160006Ev, symObjAddr: 0xBD48, symBinAddr: 0x100010148, symSize: 0x40 }
  - { offsetInCU: 0x1702F, offset: 0x1702F, size: 0x8, addend: 0x0, symName: __ZNSt3__114__split_bufferIN2yy6parser17stack_symbol_typeERNS_9allocatorIS3_EEE17__destruct_at_endB7v160006EPS3_, symObjAddr: 0xBD88, symBinAddr: 0x100010188, symSize: 0x2C }
  - { offsetInCU: 0x17063, offset: 0x17063, size: 0x8, addend: 0x0, symName: __ZNSt3__114__split_bufferIN2yy6parser17stack_symbol_typeERNS_9allocatorIS3_EEE17__destruct_at_endB7v160006EPS3_NS_17integral_constantIbLb0EEE, symObjAddr: 0xBDB4, symBinAddr: 0x1000101B4, symSize: 0x80 }
  - { offsetInCU: 0x170A4, offset: 0x170A4, size: 0x8, addend: 0x0, symName: __ZNKSt3__114__split_bufferIN2yy6parser17stack_symbol_typeERNS_9allocatorIS3_EEE9__end_capB7v160006Ev, symObjAddr: 0xBE34, symBinAddr: 0x100010234, symSize: 0x28 }
  - { offsetInCU: 0x170CA, offset: 0x170CA, size: 0x8, addend: 0x0, symName: __ZNKSt3__117__compressed_pairIPN2yy6parser17stack_symbol_typeERNS_9allocatorIS3_EEE5firstB7v160006Ev, symObjAddr: 0xBE5C, symBinAddr: 0x10001025C, symSize: 0x24 }
  - { offsetInCU: 0x170F0, offset: 0x170F0, size: 0x8, addend: 0x0, symName: __ZNSt3__16vectorIN2yy6parser17stack_symbol_typeENS_9allocatorIS3_EEE8pop_backEv, symObjAddr: 0xBE80, symBinAddr: 0x100010280, symSize: 0x2C }
  - { offsetInCU: 0x17118, offset: 0x17118, size: 0x8, addend: 0x0, symName: __ZNSt3__16vectorIN2yy6parser17stack_symbol_typeENS_9allocatorIS3_EEE17__destruct_at_endB7v160006EPS3_, symObjAddr: 0xBEAC, symBinAddr: 0x1000102AC, symSize: 0x60 }
  - { offsetInCU: 0x1715C, offset: 0x1715C, size: 0x8, addend: 0x0, symName: __ZNSt3__16vectorIN2yy6parser17stack_symbol_typeENS_9allocatorIS3_EEE27__invalidate_iterators_pastB7v160006EPS3_, symObjAddr: 0xBF0C, symBinAddr: 0x10001030C, symSize: 0x14 }
  - { offsetInCU: 0x17193, offset: 0x17193, size: 0x8, addend: 0x0, symName: __ZNKSt3__16vectorIN2yy6parser17stack_symbol_typeENS_9allocatorIS3_EEE17__annotate_shrinkB7v160006Em, symObjAddr: 0xBF20, symBinAddr: 0x100010320, symSize: 0xB4 }
  - { offsetInCU: 0x171C8, offset: 0x171C8, size: 0x8, addend: 0x0, symName: __ZNSt3__16vectorIN2yy6parser17stack_symbol_typeENS_9allocatorIS3_EEE5clearB7v160006Ev, symObjAddr: 0xBFD4, symBinAddr: 0x1000103D4, symSize: 0x4C }
  - { offsetInCU: 0x171FD, offset: 0x171FD, size: 0x8, addend: 0x0, symName: __ZNSt3__16vectorIN2yy6parser17stack_symbol_typeENS_9allocatorIS3_EEEixB7v160006Em, symObjAddr: 0xC020, symBinAddr: 0x100010420, symSize: 0x24 }
  - { offsetInCU: 0x17234, offset: 0x17234, size: 0x8, addend: 0x0, symName: __ZN2yy6parser7by_kind4moveERS1_, symObjAddr: 0xC044, symBinAddr: 0x100010444, symSize: 0x38 }
  - { offsetInCU: 0x1726B, offset: 0x1726B, size: 0x8, addend: 0x0, symName: __ZN2yy6parser7by_kind5clearEv, symObjAddr: 0xC07C, symBinAddr: 0x10001047C, symSize: 0x1C }
  - { offsetInCU: 0x17293, offset: 0x17293, size: 0x8, addend: 0x0, symName: __ZNSt3__110__list_impIP4NodeNS_9allocatorIS2_EEE12__node_allocB7v160006Ev, symObjAddr: 0xC098, symBinAddr: 0x100010498, symSize: 0x28 }
  - { offsetInCU: 0x172B9, offset: 0x172B9, size: 0x8, addend: 0x0, symName: __ZNSt3__14listIP4NodeNS_9allocatorIS2_EEE15__allocate_nodeB7v160006ERNS3_INS_11__list_nodeIS2_PvEEEE, symObjAddr: 0xC0C0, symBinAddr: 0x1000104C0, symSize: 0x70 }
  - { offsetInCU: 0x172FD, offset: 0x172FD, size: 0x8, addend: 0x0, symName: __ZNSt3__116allocator_traitsINS_9allocatorINS_11__list_nodeIP4NodePvEEEEE9constructB7v160006IS4_JRKS4_EvEEvRS7_PT_DpOT0_, symObjAddr: 0xC130, symBinAddr: 0x100010530, symSize: 0x34 }
  - { offsetInCU: 0x17354, offset: 0x17354, size: 0x8, addend: 0x0, symName: __ZNKSt3__110unique_ptrINS_11__list_nodeIP4NodePvEENS_22__allocator_destructorINS_9allocatorIS5_EEEEEptB7v160006Ev, symObjAddr: 0xC164, symBinAddr: 0x100010564, symSize: 0x28 }
  - { offsetInCU: 0x1737A, offset: 0x1737A, size: 0x8, addend: 0x0, symName: __ZNSt3__14listIP4NodeNS_9allocatorIS2_EEE20__link_nodes_at_backEPNS_16__list_node_baseIS2_PvEES9_, symObjAddr: 0xC18C, symBinAddr: 0x10001058C, symSize: 0x60 }
  - { offsetInCU: 0x173C0, offset: 0x173C0, size: 0x8, addend: 0x0, symName: __ZNKSt3__110unique_ptrINS_11__list_nodeIP4NodePvEENS_22__allocator_destructorINS_9allocatorIS5_EEEEE3getB7v160006Ev, symObjAddr: 0xC1EC, symBinAddr: 0x1000105EC, symSize: 0x28 }
  - { offsetInCU: 0x173E6, offset: 0x173E6, size: 0x8, addend: 0x0, symName: __ZNSt3__111__list_nodeIP4NodePvE9__as_linkB7v160006Ev, symObjAddr: 0xC214, symBinAddr: 0x100010614, symSize: 0x24 }
  - { offsetInCU: 0x1740C, offset: 0x1740C, size: 0x8, addend: 0x0, symName: __ZNSt3__110__list_impIP4NodeNS_9allocatorIS2_EEE4__szB7v160006Ev, symObjAddr: 0xC238, symBinAddr: 0x100010638, symSize: 0x28 }
  - { offsetInCU: 0x17432, offset: 0x17432, size: 0x8, addend: 0x0, symName: __ZNSt3__110unique_ptrINS_11__list_nodeIP4NodePvEENS_22__allocator_destructorINS_9allocatorIS5_EEEEE7releaseB7v160006Ev, symObjAddr: 0xC260, symBinAddr: 0x100010660, symSize: 0x44 }
  - { offsetInCU: 0x17467, offset: 0x17467, size: 0x8, addend: 0x0, symName: __ZNSt3__110unique_ptrINS_11__list_nodeIP4NodePvEENS_22__allocator_destructorINS_9allocatorIS5_EEEEED1B7v160006Ev, symObjAddr: 0xC2A4, symBinAddr: 0x1000106A4, symSize: 0x2C }
  - { offsetInCU: 0x17491, offset: 0x17491, size: 0x8, addend: 0x0, symName: __ZNSt3__117__compressed_pairImNS_9allocatorINS_11__list_nodeIP4NodePvEEEEE6secondB7v160006Ev, symObjAddr: 0xC2D0, symBinAddr: 0x1000106D0, symSize: 0x24 }
  - { offsetInCU: 0x174B7, offset: 0x174B7, size: 0x8, addend: 0x0, symName: __ZNSt3__122__compressed_pair_elemINS_9allocatorINS_11__list_nodeIP4NodePvEEEELi1ELb1EE5__getB7v160006Ev, symObjAddr: 0xC2F4, symBinAddr: 0x1000106F4, symSize: 0x14 }
  - { offsetInCU: 0x174DD, offset: 0x174DD, size: 0x8, addend: 0x0, symName: __ZNSt3__116allocator_traitsINS_9allocatorINS_11__list_nodeIP4NodePvEEEEE8allocateB7v160006ERS7_m, symObjAddr: 0xC308, symBinAddr: 0x100010708, symSize: 0x2C }
  - { offsetInCU: 0x17510, offset: 0x17510, size: 0x8, addend: 0x0, symName: __ZNSt3__122__allocator_destructorINS_9allocatorINS_11__list_nodeIP4NodePvEEEEEC1B7v160006ERS7_m, symObjAddr: 0xC334, symBinAddr: 0x100010734, symSize: 0x3C }
  - { offsetInCU: 0x1755B, offset: 0x1755B, size: 0x8, addend: 0x0, symName: __ZNSt3__110unique_ptrINS_11__list_nodeIP4NodePvEENS_22__allocator_destructorINS_9allocatorIS5_EEEEEC1B7v160006ILb1EvEEPS5_NS_16__dependent_typeINS_27__unique_ptr_deleter_sfinaeIS9_EEXT_EE20__good_rval_ref_typeE, symObjAddr: 0xC370, symBinAddr: 0x100010770, symSize: 0x3C }
  - { offsetInCU: 0x175AC, offset: 0x175AC, size: 0x8, addend: 0x0, symName: __ZNSt3__19allocatorINS_11__list_nodeIP4NodePvEEE8allocateB7v160006Em, symObjAddr: 0xC3AC, symBinAddr: 0x1000107AC, symSize: 0x5C }
  - { offsetInCU: 0x175EA, offset: 0x175EA, size: 0x8, addend: 0x0, symName: __ZNSt3__116allocator_traitsINS_9allocatorINS_11__list_nodeIP4NodePvEEEEE8max_sizeB7v160006IS7_vEEmRKS7_, symObjAddr: 0xC408, symBinAddr: 0x100010808, symSize: 0x24 }
  - { offsetInCU: 0x17618, offset: 0x17618, size: 0x8, addend: 0x0, symName: __ZNKSt3__19allocatorINS_11__list_nodeIP4NodePvEEE8max_sizeB7v160006Ev, symObjAddr: 0xC42C, symBinAddr: 0x10001082C, symSize: 0x18 }
  - { offsetInCU: 0x1763E, offset: 0x1763E, size: 0x8, addend: 0x0, symName: __ZNSt3__122__allocator_destructorINS_9allocatorINS_11__list_nodeIP4NodePvEEEEEC2B7v160006ERS7_m, symObjAddr: 0xC444, symBinAddr: 0x100010844, symSize: 0x2C }
  - { offsetInCU: 0x17684, offset: 0x17684, size: 0x8, addend: 0x0, symName: __ZNSt3__110unique_ptrINS_11__list_nodeIP4NodePvEENS_22__allocator_destructorINS_9allocatorIS5_EEEEEC2B7v160006ILb1EvEEPS5_NS_16__dependent_typeINS_27__unique_ptr_deleter_sfinaeIS9_EEXT_EE20__good_rval_ref_typeE, symObjAddr: 0xC470, symBinAddr: 0x100010870, symSize: 0x48 }
  - { offsetInCU: 0x176D5, offset: 0x176D5, size: 0x8, addend: 0x0, symName: __ZNSt3__117__compressed_pairIPNS_11__list_nodeIP4NodePvEENS_22__allocator_destructorINS_9allocatorIS5_EEEEEC1B7v160006IRS6_SA_EEOT_OT0_, symObjAddr: 0xC4B8, symBinAddr: 0x1000108B8, symSize: 0x3C }
  - { offsetInCU: 0x1772D, offset: 0x1772D, size: 0x8, addend: 0x0, symName: __ZNSt3__117__compressed_pairIPNS_11__list_nodeIP4NodePvEENS_22__allocator_destructorINS_9allocatorIS5_EEEEEC2B7v160006IRS6_SA_EEOT_OT0_, symObjAddr: 0xC4F4, symBinAddr: 0x1000108F4, symSize: 0x48 }
  - { offsetInCU: 0x17785, offset: 0x17785, size: 0x8, addend: 0x0, symName: __ZNSt3__122__compressed_pair_elemIPNS_11__list_nodeIP4NodePvEELi0ELb0EEC2B7v160006IRS6_vEEOT_, symObjAddr: 0xC53C, symBinAddr: 0x10001093C, symSize: 0x24 }
  - { offsetInCU: 0x177C7, offset: 0x177C7, size: 0x8, addend: 0x0, symName: __ZNSt3__122__compressed_pair_elemINS_22__allocator_destructorINS_9allocatorINS_11__list_nodeIP4NodePvEEEEEELi1ELb0EEC2B7v160006IS9_vEEOT_, symObjAddr: 0xC560, symBinAddr: 0x100010960, symSize: 0x24 }
  - { offsetInCU: 0x17809, offset: 0x17809, size: 0x8, addend: 0x0, symName: __ZNSt3__19allocatorINS_11__list_nodeIP4NodePvEEE9constructB7v160006IS3_JRKS3_EEEvPT_DpOT0_, symObjAddr: 0xC584, symBinAddr: 0x100010984, symSize: 0x28 }
  - { offsetInCU: 0x1785F, offset: 0x1785F, size: 0x8, addend: 0x0, symName: __ZNKSt3__117__compressed_pairIPNS_11__list_nodeIP4NodePvEENS_22__allocator_destructorINS_9allocatorIS5_EEEEE5firstB7v160006Ev, symObjAddr: 0xC5AC, symBinAddr: 0x1000109AC, symSize: 0x24 }
  - { offsetInCU: 0x17885, offset: 0x17885, size: 0x8, addend: 0x0, symName: __ZNKSt3__122__compressed_pair_elemIPNS_11__list_nodeIP4NodePvEELi0ELb0EE5__getB7v160006Ev, symObjAddr: 0xC5D0, symBinAddr: 0x1000109D0, symSize: 0x14 }
  - { offsetInCU: 0x178AB, offset: 0x178AB, size: 0x8, addend: 0x0, symName: __ZNSt3__117__compressed_pairImNS_9allocatorINS_11__list_nodeIP4NodePvEEEEE5firstB7v160006Ev, symObjAddr: 0xC5E4, symBinAddr: 0x1000109E4, symSize: 0x24 }
  - { offsetInCU: 0x178D1, offset: 0x178D1, size: 0x8, addend: 0x0, symName: __ZNSt3__122__compressed_pair_elemImLi0ELb0EE5__getB7v160006Ev, symObjAddr: 0xC608, symBinAddr: 0x100010A08, symSize: 0x14 }
  - { offsetInCU: 0x178F7, offset: 0x178F7, size: 0x8, addend: 0x0, symName: __ZNSt3__117__compressed_pairIPNS_11__list_nodeIP4NodePvEENS_22__allocator_destructorINS_9allocatorIS5_EEEEE5firstB7v160006Ev, symObjAddr: 0xC61C, symBinAddr: 0x100010A1C, symSize: 0x24 }
  - { offsetInCU: 0x1791D, offset: 0x1791D, size: 0x8, addend: 0x0, symName: __ZNSt3__122__compressed_pair_elemIPNS_11__list_nodeIP4NodePvEELi0ELb0EE5__getB7v160006Ev, symObjAddr: 0xC640, symBinAddr: 0x100010A40, symSize: 0x14 }
  - { offsetInCU: 0x17943, offset: 0x17943, size: 0x8, addend: 0x0, symName: __ZNSt3__110unique_ptrINS_11__list_nodeIP4NodePvEENS_22__allocator_destructorINS_9allocatorIS5_EEEEED2B7v160006Ev, symObjAddr: 0xC654, symBinAddr: 0x100010A54, symSize: 0x30 }
  - { offsetInCU: 0x1796D, offset: 0x1796D, size: 0x8, addend: 0x0, symName: __ZNSt3__110unique_ptrINS_11__list_nodeIP4NodePvEENS_22__allocator_destructorINS_9allocatorIS5_EEEEE5resetB7v160006EPS5_, symObjAddr: 0xC684, symBinAddr: 0x100010A84, symSize: 0x78 }
  - { offsetInCU: 0x179B1, offset: 0x179B1, size: 0x8, addend: 0x0, symName: __ZNSt3__117__compressed_pairIPNS_11__list_nodeIP4NodePvEENS_22__allocator_destructorINS_9allocatorIS5_EEEEE6secondB7v160006Ev, symObjAddr: 0xC6FC, symBinAddr: 0x100010AFC, symSize: 0x28 }
  - { offsetInCU: 0x179D7, offset: 0x179D7, size: 0x8, addend: 0x0, symName: __ZNSt3__122__allocator_destructorINS_9allocatorINS_11__list_nodeIP4NodePvEEEEEclB7v160006EPS6_, symObjAddr: 0xC724, symBinAddr: 0x100010B24, symSize: 0x34 }
  - { offsetInCU: 0x17A0B, offset: 0x17A0B, size: 0x8, addend: 0x0, symName: __ZNSt3__122__compressed_pair_elemINS_22__allocator_destructorINS_9allocatorINS_11__list_nodeIP4NodePvEEEEEELi1ELb0EE5__getB7v160006Ev, symObjAddr: 0xC758, symBinAddr: 0x100010B58, symSize: 0x14 }
  - { offsetInCU: 0x17A31, offset: 0x17A31, size: 0x8, addend: 0x0, symName: __ZNSt3__116allocator_traitsINS_9allocatorINS_11__list_nodeIP4NodePvEEEEE10deallocateB7v160006ERS7_PS6_m, symObjAddr: 0xC76C, symBinAddr: 0x100010B6C, symSize: 0x34 }
  - { offsetInCU: 0x17A73, offset: 0x17A73, size: 0x8, addend: 0x0, symName: __ZNSt3__19allocatorINS_11__list_nodeIP4NodePvEEE10deallocateB7v160006EPS5_m, symObjAddr: 0xC7A0, symBinAddr: 0x100010BA0, symSize: 0x44 }
  - { offsetInCU: 0x17ABF, offset: 0x17ABF, size: 0x8, addend: 0x0, symName: __ZNSt3__116allocator_traitsINS_9allocatorIcEEE37select_on_container_copy_constructionB7v160006IS2_vvEES2_RKS2_, symObjAddr: 0xC7E4, symBinAddr: 0x100010BE4, symSize: 0x10 }
  - { offsetInCU: 0x17AEE, offset: 0x17AEE, size: 0x8, addend: 0x0, symName: __ZNKSt3__112basic_stringIcNS_11char_traitsIcEENS_9allocatorIcEEE13get_allocatorB7v160006Ev, symObjAddr: 0xC7F4, symBinAddr: 0x100010BF4, symSize: 0x24 }
  - { offsetInCU: 0x17B14, offset: 0x17B14, size: 0x8, addend: 0x0, symName: __ZNSt3__112basic_stringIcNS_11char_traitsIcEENS_9allocatorIcEEEC1B7v160006ENS_24__uninitialized_size_tagEmRKS4_, symObjAddr: 0xC818, symBinAddr: 0x100010C18, symSize: 0x3C }
  - { offsetInCU: 0x17B68, offset: 0x17B68, size: 0x8, addend: 0x0, symName: __ZNSt3__112basic_stringIcNS_11char_traitsIcEENS_9allocatorIcEEE13__get_pointerB7v160006Ev, symObjAddr: 0xC868, symBinAddr: 0x100010C68, symSize: 0x54 }
  - { offsetInCU: 0x17B8E, offset: 0x17B8E, size: 0x8, addend: 0x0, symName: __ZNSt3__111char_traitsIcE4copyEPcPKcm, symObjAddr: 0xC8BC, symBinAddr: 0x100010CBC, symSize: 0x5C }
  - { offsetInCU: 0x17BCD, offset: 0x17BCD, size: 0x8, addend: 0x0, symName: __ZNSt3__111char_traitsIcE6assignEPcmc, symObjAddr: 0xC918, symBinAddr: 0x100010D18, symSize: 0x44 }
  - { offsetInCU: 0x17C0C, offset: 0x17C0C, size: 0x8, addend: 0x0, symName: __ZNKSt3__112basic_stringIcNS_11char_traitsIcEENS_9allocatorIcEEE7__allocB7v160006Ev, symObjAddr: 0xC95C, symBinAddr: 0x100010D5C, symSize: 0x24 }
  - { offsetInCU: 0x17C32, offset: 0x17C32, size: 0x8, addend: 0x0, symName: __ZNKSt3__117__compressed_pairINS_12basic_stringIcNS_11char_traitsIcEENS_9allocatorIcEEE5__repES5_E6secondB7v160006Ev, symObjAddr: 0xC980, symBinAddr: 0x100010D80, symSize: 0x24 }
  - { offsetInCU: 0x17C58, offset: 0x17C58, size: 0x8, addend: 0x0, symName: __ZNKSt3__122__compressed_pair_elemINS_9allocatorIcEELi1ELb1EE5__getB7v160006Ev, symObjAddr: 0xC9A4, symBinAddr: 0x100010DA4, symSize: 0x14 }
  - { offsetInCU: 0x17C7E, offset: 0x17C7E, size: 0x8, addend: 0x0, symName: __ZNSt3__112basic_stringIcNS_11char_traitsIcEENS_9allocatorIcEEEC2B7v160006ENS_24__uninitialized_size_tagEmRKS4_, symObjAddr: 0xC9B8, symBinAddr: 0x100010DB8, symSize: 0x118 }
  - { offsetInCU: 0x17CFF, offset: 0x17CFF, size: 0x8, addend: 0x0, symName: __ZNSt3__117__compressed_pairINS_12basic_stringIcNS_11char_traitsIcEENS_9allocatorIcEEE5__repES5_EC1B7v160006INS_18__default_init_tagERKS5_EEOT_OT0_, symObjAddr: 0xCAD0, symBinAddr: 0x100010ED0, symSize: 0x3C }
  - { offsetInCU: 0x17D57, offset: 0x17D57, size: 0x8, addend: 0x0, symName: __ZNKSt3__112basic_stringIcNS_11char_traitsIcEENS_9allocatorIcEEE8max_sizeB7v160006Ev, symObjAddr: 0xCB0C, symBinAddr: 0x100010F0C, symSize: 0xAC }
  - { offsetInCU: 0x17DAA, offset: 0x17DAA, size: 0x8, addend: 0x0, symName: __ZNKSt3__112basic_stringIcNS_11char_traitsIcEENS_9allocatorIcEEE20__throw_length_errorB7v160006Ev, symObjAddr: 0xCBB8, symBinAddr: 0x100010FB8, symSize: 0x1C }
  - { offsetInCU: 0x17DD0, offset: 0x17DD0, size: 0x8, addend: 0x0, symName: __ZNSt3__112basic_stringIcNS_11char_traitsIcEENS_9allocatorIcEEE13__fits_in_ssoB7v160006Em, symObjAddr: 0xCBD4, symBinAddr: 0x100010FD4, symSize: 0x20 }
  - { offsetInCU: 0x17DF4, offset: 0x17DF4, size: 0x8, addend: 0x0, symName: __ZNSt3__112basic_stringIcNS_11char_traitsIcEENS_9allocatorIcEEE16__set_short_sizeB7v160006Em, symObjAddr: 0xCBF4, symBinAddr: 0x100010FF4, symSize: 0x78 }
  - { offsetInCU: 0x17E29, offset: 0x17E29, size: 0x8, addend: 0x0, symName: __ZNSt3__112basic_stringIcNS_11char_traitsIcEENS_9allocatorIcEEE11__recommendB7v160006Em, symObjAddr: 0xCC6C, symBinAddr: 0x10001106C, symSize: 0x84 }
  - { offsetInCU: 0x17E5C, offset: 0x17E5C, size: 0x8, addend: 0x0, symName: __ZNSt3__116allocator_traitsINS_9allocatorIcEEE8allocateB7v160006ERS2_m, symObjAddr: 0xCCF0, symBinAddr: 0x1000110F0, symSize: 0x2C }
  - { offsetInCU: 0x17E8F, offset: 0x17E8F, size: 0x8, addend: 0x0, symName: __ZNSt3__112basic_stringIcNS_11char_traitsIcEENS_9allocatorIcEEE7__allocB7v160006Ev, symObjAddr: 0xCD1C, symBinAddr: 0x10001111C, symSize: 0x24 }
  - { offsetInCU: 0x17EB5, offset: 0x17EB5, size: 0x8, addend: 0x0, symName: __ZNSt3__112basic_stringIcNS_11char_traitsIcEENS_9allocatorIcEEE16__begin_lifetimeB7v160006EPcm, symObjAddr: 0xCD40, symBinAddr: 0x100011140, symSize: 0x14 }
  - { offsetInCU: 0x17EE8, offset: 0x17EE8, size: 0x8, addend: 0x0, symName: __ZNSt3__112basic_stringIcNS_11char_traitsIcEENS_9allocatorIcEEE14__set_long_capB7v160006Em, symObjAddr: 0xCD54, symBinAddr: 0x100011154, symSize: 0x70 }
  - { offsetInCU: 0x17F1D, offset: 0x17F1D, size: 0x8, addend: 0x0, symName: __ZNSt3__112basic_stringIcNS_11char_traitsIcEENS_9allocatorIcEEE18__set_long_pointerB7v160006EPc, symObjAddr: 0xCDC4, symBinAddr: 0x1000111C4, symSize: 0x38 }
  - { offsetInCU: 0x17F52, offset: 0x17F52, size: 0x8, addend: 0x0, symName: __ZNSt3__112basic_stringIcNS_11char_traitsIcEENS_9allocatorIcEEE15__set_long_sizeB7v160006Em, symObjAddr: 0xCDFC, symBinAddr: 0x1000111FC, symSize: 0x38 }
  - { offsetInCU: 0x17F87, offset: 0x17F87, size: 0x8, addend: 0x0, symName: __ZNSt3__117__compressed_pairINS_12basic_stringIcNS_11char_traitsIcEENS_9allocatorIcEEE5__repES5_EC2B7v160006INS_18__default_init_tagERKS5_EEOT_OT0_, symObjAddr: 0xCE34, symBinAddr: 0x100011234, symSize: 0x40 }
  - { offsetInCU: 0x17FDF, offset: 0x17FDF, size: 0x8, addend: 0x0, symName: __ZNSt3__122__compressed_pair_elemINS_9allocatorIcEELi1ELb1EEC2B7v160006IRKS2_vEEOT_, symObjAddr: 0xCE74, symBinAddr: 0x100011274, symSize: 0x18 }
  - { offsetInCU: 0x18021, offset: 0x18021, size: 0x8, addend: 0x0, symName: __ZNSt3__116allocator_traitsINS_9allocatorIcEEE8max_sizeB7v160006IS2_vEEmRKS2_, symObjAddr: 0xCE8C, symBinAddr: 0x10001128C, symSize: 0x24 }
  - { offsetInCU: 0x1804F, offset: 0x1804F, size: 0x8, addend: 0x0, symName: __ZNSt3__114numeric_limitsImE3maxB7v160006Ev, symObjAddr: 0xCEB0, symBinAddr: 0x1000112B0, symSize: 0x14 }
  - { offsetInCU: 0x18063, offset: 0x18063, size: 0x8, addend: 0x0, symName: __ZNKSt3__19allocatorIcE8max_sizeB7v160006Ev, symObjAddr: 0xCEC4, symBinAddr: 0x1000112C4, symSize: 0x14 }
  - { offsetInCU: 0x18089, offset: 0x18089, size: 0x8, addend: 0x0, symName: __ZNSt3__123__libcpp_numeric_limitsImLb1EE3maxB7v160006Ev, symObjAddr: 0xCED8, symBinAddr: 0x1000112D8, symSize: 0x8 }
  - { offsetInCU: 0x1809D, offset: 0x1809D, size: 0x8, addend: 0x0, symName: __ZNSt3__112basic_stringIcNS_11char_traitsIcEENS_9allocatorIcEEE10__align_itB7v160006ILm16EEEmm, symObjAddr: 0xCEE0, symBinAddr: 0x1000112E0, symSize: 0x1C }
  - { offsetInCU: 0x180CB, offset: 0x180CB, size: 0x8, addend: 0x0, symName: __ZNSt3__19allocatorIcE8allocateB7v160006Em, symObjAddr: 0xCEFC, symBinAddr: 0x1000112FC, symSize: 0x58 }
  - { offsetInCU: 0x180FF, offset: 0x180FF, size: 0x8, addend: 0x0, symName: __ZNSt3__117__compressed_pairINS_12basic_stringIcNS_11char_traitsIcEENS_9allocatorIcEEE5__repES5_E6secondB7v160006Ev, symObjAddr: 0xCF54, symBinAddr: 0x100011354, symSize: 0x24 }
  - { offsetInCU: 0x18125, offset: 0x18125, size: 0x8, addend: 0x0, symName: __ZNSt3__122__compressed_pair_elemINS_9allocatorIcEELi1ELb1EE5__getB7v160006Ev, symObjAddr: 0xCF78, symBinAddr: 0x100011378, symSize: 0x14 }
  - { offsetInCU: 0x1814B, offset: 0x1814B, size: 0x8, addend: 0x0, symName: __ZNSt3__112basic_stringIcNS_11char_traitsIcEENS_9allocatorIcEEE18__get_long_pointerB7v160006Ev, symObjAddr: 0xCF8C, symBinAddr: 0x10001138C, symSize: 0x28 }
  - { offsetInCU: 0x18171, offset: 0x18171, size: 0x8, addend: 0x0, symName: __ZNSt3__112basic_stringIcNS_11char_traitsIcEENS_9allocatorIcEEE19__get_short_pointerB7v160006Ev, symObjAddr: 0xCFB4, symBinAddr: 0x1000113B4, symSize: 0x28 }
  - { offsetInCU: 0x18197, offset: 0x18197, size: 0x8, addend: 0x0, symName: __ZNSt3__114pointer_traitsIPcE10pointer_toB7v160006ERc, symObjAddr: 0xCFDC, symBinAddr: 0x1000113DC, symSize: 0x14 }
  - { offsetInCU: 0x181DD, offset: 0x181DD, size: 0x8, addend: 0x0, symName: __ZNKSt3__114__copy_trivialclB7v160006IKccLi0EEENS_4pairIPT_PT0_EES5_S5_S7_, symObjAddr: 0xD210, symBinAddr: 0x100011610, symSize: 0x48 }
  - { offsetInCU: 0x18263, offset: 0x18263, size: 0x8, addend: 0x0, symName: __ZNSt3__14pairIPKcS2_EC1B7v160006IS2_S2_LPv0EEEOT_OT0_, symObjAddr: 0xD378, symBinAddr: 0x100011778, symSize: 0x3C }
  - { offsetInCU: 0x182C1, offset: 0x182C1, size: 0x8, addend: 0x0, symName: __ZNSt3__14pairIPKcS2_EC2B7v160006IS2_S2_LPv0EEEOT_OT0_, symObjAddr: 0xD3B4, symBinAddr: 0x1000117B4, symSize: 0x34 }
  - { offsetInCU: 0x1831F, offset: 0x1831F, size: 0x8, addend: 0x0, symName: __ZNSt3__118__unwrap_iter_implIPKcLb1EE8__unwrapB7v160006ES2_, symObjAddr: 0xD3E8, symBinAddr: 0x1000117E8, symSize: 0x24 }
  - { offsetInCU: 0x1834C, offset: 0x1834C, size: 0x8, addend: 0x0, symName: __ZNSt3__14pairIPKcPcEC1B7v160006IRS2_S3_LPv0EEEOT_OT0_, symObjAddr: 0xD4C0, symBinAddr: 0x1000118C0, symSize: 0x3C }
  - { offsetInCU: 0x183AA, offset: 0x183AA, size: 0x8, addend: 0x0, symName: __ZNSt3__14pairIPKcPcEC2B7v160006IRS2_S3_LPv0EEEOT_OT0_, symObjAddr: 0xD4FC, symBinAddr: 0x1000118FC, symSize: 0x34 }
  - { offsetInCU: 0x18408, offset: 0x18408, size: 0x8, addend: 0x0, symName: __ZNSt3__118__unwrap_iter_implIPcLb1EE8__unwrapB7v160006ES1_, symObjAddr: 0xD530, symBinAddr: 0x100011930, symSize: 0x24 }
  - { offsetInCU: 0x1842B, offset: 0x1842B, size: 0x8, addend: 0x0, symName: __ZNSt3__14pairIPKcPcEC1B7v160006IS2_S3_LPv0EEEOT_OT0_, symObjAddr: 0xD554, symBinAddr: 0x100011954, symSize: 0x3C }
  - { offsetInCU: 0x18489, offset: 0x18489, size: 0x8, addend: 0x0, symName: __ZNSt3__14pairIPKcPcEC2B7v160006IS2_S3_LPv0EEEOT_OT0_, symObjAddr: 0xD590, symBinAddr: 0x100011990, symSize: 0x34 }
  - { offsetInCU: 0x184E7, offset: 0x184E7, size: 0x8, addend: 0x0, symName: __ZNSt3__118__unwrap_iter_implIPKcLb1EE8__rewrapB7v160006ES2_S2_, symObjAddr: 0xD600, symBinAddr: 0x100011A00, symSize: 0x48 }
  - { offsetInCU: 0x18518, offset: 0x18518, size: 0x8, addend: 0x0, symName: __ZNSt3__118__unwrap_iter_implIPcLb1EE8__rewrapB7v160006ES1_S1_, symObjAddr: 0xD648, symBinAddr: 0x100011A48, symSize: 0x48 }
  - { offsetInCU: 0x18549, offset: 0x18549, size: 0x8, addend: 0x0, symName: __ZNKSt3__16vectorIN2yy6parser17stack_symbol_typeENS_9allocatorIS3_EEEixB7v160006Em, symObjAddr: 0xD74C, symBinAddr: 0x100011B4C, symSize: 0x24 }
  - { offsetInCU: 0x3F, offset: 0x1870F, size: 0x8, addend: 0x0, symName: _lexical_errors, symObjAddr: 0x46DB0, symBinAddr: 0x100028010, symSize: 0x0 }
  - { offsetInCU: 0x5C, offset: 0x1872C, size: 0x8, addend: 0x0, symName: _yyleng, symObjAddr: 0x46DB8, symBinAddr: 0x100028018, symSize: 0x0 }
  - { offsetInCU: 0x85, offset: 0x18755, size: 0x8, addend: 0x0, symName: _yyin, symObjAddr: 0x46DC0, symBinAddr: 0x100028020, symSize: 0x0 }
  - { offsetInCU: 0x25E, offset: 0x1892E, size: 0x8, addend: 0x0, symName: _yyout, symObjAddr: 0x46DC8, symBinAddr: 0x100028028, symSize: 0x0 }
  - { offsetInCU: 0x275, offset: 0x18945, size: 0x8, addend: 0x0, symName: _yylineno, symObjAddr: 0x4E4C, symBinAddr: 0x100028000, symSize: 0x0 }
  - { offsetInCU: 0x28C, offset: 0x1895C, size: 0x8, addend: 0x0, symName: _yy_flex_debug, symObjAddr: 0x46DD0, symBinAddr: 0x100028030, symSize: 0x0 }
  - { offsetInCU: 0x2A3, offset: 0x18973, size: 0x8, addend: 0x0, symName: _yytext, symObjAddr: 0x46DD8, symBinAddr: 0x100028038, symSize: 0x0 }
  - { offsetInCU: 0x2BA, offset: 0x1898A, size: 0x8, addend: 0x0, symName: __ZL7yy_init, symObjAddr: 0x46DE0, symBinAddr: 0x100028040, symSize: 0x0 }
  - { offsetInCU: 0x2D5, offset: 0x189A5, size: 0x8, addend: 0x0, symName: __ZL8yy_start, symObjAddr: 0x46DE4, symBinAddr: 0x100028044, symSize: 0x0 }
  - { offsetInCU: 0x2F0, offset: 0x189C0, size: 0x8, addend: 0x0, symName: __ZL15yy_buffer_stack, symObjAddr: 0x46DE8, symBinAddr: 0x100028048, symSize: 0x0 }
  - { offsetInCU: 0x3BA, offset: 0x18A8A, size: 0x8, addend: 0x0, symName: __ZL19yy_buffer_stack_top, symObjAddr: 0x46DF0, symBinAddr: 0x100028050, symSize: 0x0 }
  - { offsetInCU: 0x3D5, offset: 0x18AA5, size: 0x8, addend: 0x0, symName: __ZL10yy_c_buf_p, symObjAddr: 0x46DF8, symBinAddr: 0x100028058, symSize: 0x0 }
  - { offsetInCU: 0x3F0, offset: 0x18AC0, size: 0x8, addend: 0x0, symName: __ZL12yy_hold_char, symObjAddr: 0x46E00, symBinAddr: 0x100028060, symSize: 0x0 }
  - { offsetInCU: 0x40B, offset: 0x18ADB, size: 0x8, addend: 0x0, symName: __ZL5yy_ec, symObjAddr: 0x4E50, symBinAddr: 0x100021DC8, symSize: 0x0 }
  - { offsetInCU: 0x450, offset: 0x18B20, size: 0x8, addend: 0x0, symName: __ZL9yy_accept, symObjAddr: 0x4F50, symBinAddr: 0x100021EC8, symSize: 0x0 }
  - { offsetInCU: 0x487, offset: 0x18B57, size: 0x8, addend: 0x0, symName: __ZL23yy_last_accepting_state, symObjAddr: 0x46E04, symBinAddr: 0x100028064, symSize: 0x0 }
  - { offsetInCU: 0x4AE, offset: 0x18B7E, size: 0x8, addend: 0x0, symName: __ZL22yy_last_accepting_cpos, symObjAddr: 0x46E08, symBinAddr: 0x100028068, symSize: 0x0 }
  - { offsetInCU: 0x4C9, offset: 0x18B99, size: 0x8, addend: 0x0, symName: __ZL6yy_chk, symObjAddr: 0x5076, symBinAddr: 0x100021FEE, symSize: 0x0 }
  - { offsetInCU: 0x4F0, offset: 0x18BC0, size: 0x8, addend: 0x0, symName: __ZL7yy_base, symObjAddr: 0x5230, symBinAddr: 0x1000221A8, symSize: 0x0 }
  - { offsetInCU: 0x517, offset: 0x18BE7, size: 0x8, addend: 0x0, symName: __ZL6yy_def, symObjAddr: 0x535C, symBinAddr: 0x1000222D4, symSize: 0x0 }
  - { offsetInCU: 0x532, offset: 0x18C02, size: 0x8, addend: 0x0, symName: __ZL7yy_meta, symObjAddr: 0x5488, symBinAddr: 0x100022400, symSize: 0x0 }
  - { offsetInCU: 0x559, offset: 0x18C29, size: 0x8, addend: 0x0, symName: __ZL6yy_nxt, symObjAddr: 0x54BC, symBinAddr: 0x100022434, symSize: 0x0 }
  - { offsetInCU: 0x574, offset: 0x18C44, size: 0x8, addend: 0x0, symName: __ZL21yy_rule_can_match_eol, symObjAddr: 0x5678, symBinAddr: 0x1000225F0, symSize: 0x0 }
  - { offsetInCU: 0xA717, offset: 0x22DE7, size: 0x8, addend: 0x0, symName: __ZN2yy6parser12yytranslate_Ei, symObjAddr: 0x46C4, symBinAddr: 0x10001602C, symSize: 0x70 }
  - { offsetInCU: 0xA73A, offset: 0x22E0A, size: 0x8, addend: 0x0, symName: __ZZN2yy6parser12yytranslate_EiE15translate_table, symObjAddr: 0x5740, symBinAddr: 0x1000226B8, symSize: 0x0 }
  - { offsetInCU: 0xA77E, offset: 0x22E4E, size: 0x8, addend: 0x0, symName: __ZL10yy_n_chars, symObjAddr: 0x46E10, symBinAddr: 0x100028070, symSize: 0x0 }
  - { offsetInCU: 0xA799, offset: 0x22E69, size: 0x8, addend: 0x0, symName: __ZL27yy_did_buffer_switch_on_eof, symObjAddr: 0x46E18, symBinAddr: 0x100028078, symSize: 0x0 }
  - { offsetInCU: 0xA7B4, offset: 0x22E84, size: 0x8, addend: 0x0, symName: __ZL19yy_buffer_stack_max, symObjAddr: 0x46E28, symBinAddr: 0x100028088, symSize: 0x0 }
  - { offsetInCU: 0xA7CF, offset: 0x22E9F, size: 0x8, addend: 0x0, symName: __ZL14yy_start_stack, symObjAddr: 0x46E20, symBinAddr: 0x100028080, symSize: 0x0 }
  - { offsetInCU: 0xA7EA, offset: 0x22EBA, size: 0x8, addend: 0x0, symName: __ZL18yy_start_stack_ptr, symObjAddr: 0x46E30, symBinAddr: 0x100028090, symSize: 0x0 }
  - { offsetInCU: 0xA805, offset: 0x22ED5, size: 0x8, addend: 0x0, symName: __ZL20yy_start_stack_depth, symObjAddr: 0x46E34, symBinAddr: 0x100028094, symSize: 0x0 }
  - { offsetInCU: 0xC4A0, offset: 0x24B70, size: 0x8, addend: 0x0, symName: __Z5yylexv, symObjAddr: 0x0, symBinAddr: 0x100011B70, symSize: 0x145C }
  - { offsetInCU: 0xC5A0, offset: 0x24C70, size: 0x8, addend: 0x0, symName: __ZL21yyensure_buffer_stackv, symObjAddr: 0x152C, symBinAddr: 0x10001309C, symSize: 0x14C }
  - { offsetInCU: 0xC5E9, offset: 0x24CB9, size: 0x8, addend: 0x0, symName: __Z16yy_create_bufferP7__sFILEi, symObjAddr: 0x1678, symBinAddr: 0x1000131E8, symSize: 0xB8 }
  - { offsetInCU: 0xC635, offset: 0x24D05, size: 0x8, addend: 0x0, symName: __ZL20yy_load_buffer_statev, symObjAddr: 0x1730, symBinAddr: 0x1000132A0, symSize: 0x6C }
  - { offsetInCU: 0xC650, offset: 0x24D20, size: 0x8, addend: 0x0, symName: __ZN2yy6parser11make_PLUSOPENSt3__112basic_stringIcNS1_11char_traitsIcEENS1_9allocatorIcEEEE, symObjAddr: 0x179C, symBinAddr: 0x10001330C, symSize: 0x74 }
  - { offsetInCU: 0xC67A, offset: 0x24D4A, size: 0x8, addend: 0x0, symName: __ZN2yy6parser12make_MINUSOPENSt3__112basic_stringIcNS1_11char_traitsIcEENS1_9allocatorIcEEEE, symObjAddr: 0x1844, symBinAddr: 0x100013380, symSize: 0x74 }
  - { offsetInCU: 0xC69F, offset: 0x24D6F, size: 0x8, addend: 0x0, symName: __ZN2yy6parser11make_MULTOPENSt3__112basic_stringIcNS1_11char_traitsIcEENS1_9allocatorIcEEEE, symObjAddr: 0x18B8, symBinAddr: 0x1000133F4, symSize: 0x74 }
  - { offsetInCU: 0xC6C4, offset: 0x24D94, size: 0x8, addend: 0x0, symName: __ZN2yy6parser7make_LPENSt3__112basic_stringIcNS1_11char_traitsIcEENS1_9allocatorIcEEEE, symObjAddr: 0x192C, symBinAddr: 0x100013468, symSize: 0x74 }
  - { offsetInCU: 0xC6E9, offset: 0x24DB9, size: 0x8, addend: 0x0, symName: __ZN2yy6parser7make_RPENSt3__112basic_stringIcNS1_11char_traitsIcEENS1_9allocatorIcEEEE, symObjAddr: 0x19A0, symBinAddr: 0x1000134DC, symSize: 0x74 }
  - { offsetInCU: 0xC70E, offset: 0x24DDE, size: 0x8, addend: 0x0, symName: __ZN2yy6parser8make_LCBENSt3__112basic_stringIcNS1_11char_traitsIcEENS1_9allocatorIcEEEE, symObjAddr: 0x1A14, symBinAddr: 0x100013550, symSize: 0x74 }
  - { offsetInCU: 0xC733, offset: 0x24E03, size: 0x8, addend: 0x0, symName: __ZN2yy6parser8make_RCBENSt3__112basic_stringIcNS1_11char_traitsIcEENS1_9allocatorIcEEEE, symObjAddr: 0x1A88, symBinAddr: 0x1000135C4, symSize: 0x74 }
  - { offsetInCU: 0xC758, offset: 0x24E28, size: 0x8, addend: 0x0, symName: __ZN2yy6parser7make_LBENSt3__112basic_stringIcNS1_11char_traitsIcEENS1_9allocatorIcEEEE, symObjAddr: 0x1AFC, symBinAddr: 0x100013638, symSize: 0x74 }
  - { offsetInCU: 0xC77D, offset: 0x24E4D, size: 0x8, addend: 0x0, symName: __ZN2yy6parser7make_RBENSt3__112basic_stringIcNS1_11char_traitsIcEENS1_9allocatorIcEEEE, symObjAddr: 0x1B70, symBinAddr: 0x1000136AC, symSize: 0x74 }
  - { offsetInCU: 0xC7A2, offset: 0x24E72, size: 0x8, addend: 0x0, symName: __ZN2yy6parser13make_ASSIGNOPENSt3__112basic_stringIcNS1_11char_traitsIcEENS1_9allocatorIcEEEE, symObjAddr: 0x1BE4, symBinAddr: 0x100013720, symSize: 0x74 }
  - { offsetInCU: 0xC7C7, offset: 0x24E97, size: 0x8, addend: 0x0, symName: __ZN2yy6parser14make_SEMICOLONENSt3__112basic_stringIcNS1_11char_traitsIcEENS1_9allocatorIcEEEE, symObjAddr: 0x1C58, symBinAddr: 0x100013794, symSize: 0x74 }
  - { offsetInCU: 0xC7EC, offset: 0x24EBC, size: 0x8, addend: 0x0, symName: __ZN2yy6parser10make_COMMAENSt3__112basic_stringIcNS1_11char_traitsIcEENS1_9allocatorIcEEEE, symObjAddr: 0x1CCC, symBinAddr: 0x100013808, symSize: 0x74 }
  - { offsetInCU: 0xC811, offset: 0x24EE1, size: 0x8, addend: 0x0, symName: __ZN2yy6parser8make_DOTENSt3__112basic_stringIcNS1_11char_traitsIcEENS1_9allocatorIcEEEE, symObjAddr: 0x1D40, symBinAddr: 0x10001387C, symSize: 0x74 }
  - { offsetInCU: 0xC836, offset: 0x24F06, size: 0x8, addend: 0x0, symName: __ZN2yy6parser10make_ANDOPENSt3__112basic_stringIcNS1_11char_traitsIcEENS1_9allocatorIcEEEE, symObjAddr: 0x1DB4, symBinAddr: 0x1000138F0, symSize: 0x74 }
  - { offsetInCU: 0xC85B, offset: 0x24F2B, size: 0x8, addend: 0x0, symName: __ZN2yy6parser9make_EQOPENSt3__112basic_stringIcNS1_11char_traitsIcEENS1_9allocatorIcEEEE, symObjAddr: 0x1E28, symBinAddr: 0x100013964, symSize: 0x74 }
  - { offsetInCU: 0xC880, offset: 0x24F50, size: 0x8, addend: 0x0, symName: __ZN2yy6parser9make_NEOPENSt3__112basic_stringIcNS1_11char_traitsIcEENS1_9allocatorIcEEEE, symObjAddr: 0x1E9C, symBinAddr: 0x1000139D8, symSize: 0x74 }
  - { offsetInCU: 0xC8A5, offset: 0x24F75, size: 0x8, addend: 0x0, symName: __ZN2yy6parser9make_OROPENSt3__112basic_stringIcNS1_11char_traitsIcEENS1_9allocatorIcEEEE, symObjAddr: 0x1F10, symBinAddr: 0x100013A4C, symSize: 0x74 }
  - { offsetInCU: 0xC8CA, offset: 0x24F9A, size: 0x8, addend: 0x0, symName: __ZN2yy6parser10make_DIVOPENSt3__112basic_stringIcNS1_11char_traitsIcEENS1_9allocatorIcEEEE, symObjAddr: 0x1F84, symBinAddr: 0x100013AC0, symSize: 0x74 }
  - { offsetInCU: 0xC8EF, offset: 0x24FBF, size: 0x8, addend: 0x0, symName: __ZN2yy6parser10make_MODOPENSt3__112basic_stringIcNS1_11char_traitsIcEENS1_9allocatorIcEEEE, symObjAddr: 0x1FF8, symBinAddr: 0x100013B34, symSize: 0x74 }
  - { offsetInCU: 0xC914, offset: 0x24FE4, size: 0x8, addend: 0x0, symName: __ZN2yy6parser10make_NOTOPENSt3__112basic_stringIcNS1_11char_traitsIcEENS1_9allocatorIcEEEE, symObjAddr: 0x206C, symBinAddr: 0x100013BA8, symSize: 0x74 }
  - { offsetInCU: 0xC939, offset: 0x25009, size: 0x8, addend: 0x0, symName: __ZN2yy6parser10make_CLASSENSt3__112basic_stringIcNS1_11char_traitsIcEENS1_9allocatorIcEEEE, symObjAddr: 0x20E0, symBinAddr: 0x100013C1C, symSize: 0x74 }
  - { offsetInCU: 0xC95E, offset: 0x2502E, size: 0x8, addend: 0x0, symName: __ZN2yy6parser12make_EXTENDSENSt3__112basic_stringIcNS1_11char_traitsIcEENS1_9allocatorIcEEEE, symObjAddr: 0x2154, symBinAddr: 0x100013C90, symSize: 0x74 }
  - { offsetInCU: 0xC983, offset: 0x25053, size: 0x8, addend: 0x0, symName: __ZN2yy6parser11make_PUBLICENSt3__112basic_stringIcNS1_11char_traitsIcEENS1_9allocatorIcEEEE, symObjAddr: 0x21C8, symBinAddr: 0x100013D04, symSize: 0x74 }
  - { offsetInCU: 0xC9A8, offset: 0x25078, size: 0x8, addend: 0x0, symName: __ZN2yy6parser11make_STATICENSt3__112basic_stringIcNS1_11char_traitsIcEENS1_9allocatorIcEEEE, symObjAddr: 0x223C, symBinAddr: 0x100013D78, symSize: 0x74 }
  - { offsetInCU: 0xC9CD, offset: 0x2509D, size: 0x8, addend: 0x0, symName: __ZN2yy6parser9make_VOIDENSt3__112basic_stringIcNS1_11char_traitsIcEENS1_9allocatorIcEEEE, symObjAddr: 0x22B0, symBinAddr: 0x100013DEC, symSize: 0x74 }
  - { offsetInCU: 0xC9F2, offset: 0x250C2, size: 0x8, addend: 0x0, symName: __ZN2yy6parser16make_INT_KEYWORDENSt3__112basic_stringIcNS1_11char_traitsIcEENS1_9allocatorIcEEEE, symObjAddr: 0x2324, symBinAddr: 0x100013E60, symSize: 0x74 }
  - { offsetInCU: 0xCA17, offset: 0x250E7, size: 0x8, addend: 0x0, symName: __ZN2yy6parser12make_BOOLEANENSt3__112basic_stringIcNS1_11char_traitsIcEENS1_9allocatorIcEEEE, symObjAddr: 0x2398, symBinAddr: 0x100013ED4, symSize: 0x74 }
  - { offsetInCU: 0xCA3C, offset: 0x2510C, size: 0x8, addend: 0x0, symName: __ZN2yy6parser7make_IFENSt3__112basic_stringIcNS1_11char_traitsIcEENS1_9allocatorIcEEEE, symObjAddr: 0x240C, symBinAddr: 0x100013F48, symSize: 0x74 }
  - { offsetInCU: 0xCA61, offset: 0x25131, size: 0x8, addend: 0x0, symName: __ZN2yy6parser9make_ELSEENSt3__112basic_stringIcNS1_11char_traitsIcEENS1_9allocatorIcEEEE, symObjAddr: 0x2480, symBinAddr: 0x100013FBC, symSize: 0x74 }
  - { offsetInCU: 0xCA86, offset: 0x25156, size: 0x8, addend: 0x0, symName: __ZN2yy6parser10make_WHILEENSt3__112basic_stringIcNS1_11char_traitsIcEENS1_9allocatorIcEEEE, symObjAddr: 0x24F4, symBinAddr: 0x100014030, symSize: 0x74 }
  - { offsetInCU: 0xCAAB, offset: 0x2517B, size: 0x8, addend: 0x0, symName: __ZN2yy6parser11make_RETURNENSt3__112basic_stringIcNS1_11char_traitsIcEENS1_9allocatorIcEEEE, symObjAddr: 0x2568, symBinAddr: 0x1000140A4, symSize: 0x74 }
  - { offsetInCU: 0xCAD0, offset: 0x251A0, size: 0x8, addend: 0x0, symName: __ZN2yy6parser9make_TRUEENSt3__112basic_stringIcNS1_11char_traitsIcEENS1_9allocatorIcEEEE, symObjAddr: 0x25DC, symBinAddr: 0x100014118, symSize: 0x74 }
  - { offsetInCU: 0xCAF5, offset: 0x251C5, size: 0x8, addend: 0x0, symName: __ZN2yy6parser10make_FALSEENSt3__112basic_stringIcNS1_11char_traitsIcEENS1_9allocatorIcEEEE, symObjAddr: 0x2650, symBinAddr: 0x10001418C, symSize: 0x74 }
  - { offsetInCU: 0xCB1A, offset: 0x251EA, size: 0x8, addend: 0x0, symName: __ZN2yy6parser9make_THISENSt3__112basic_stringIcNS1_11char_traitsIcEENS1_9allocatorIcEEEE, symObjAddr: 0x26C4, symBinAddr: 0x100014200, symSize: 0x74 }
  - { offsetInCU: 0xCB3F, offset: 0x2520F, size: 0x8, addend: 0x0, symName: __ZN2yy6parser8make_NEWENSt3__112basic_stringIcNS1_11char_traitsIcEENS1_9allocatorIcEEEE, symObjAddr: 0x2738, symBinAddr: 0x100014274, symSize: 0x74 }
  - { offsetInCU: 0xCB64, offset: 0x25234, size: 0x8, addend: 0x0, symName: __ZN2yy6parser11make_LENGTHENSt3__112basic_stringIcNS1_11char_traitsIcEENS1_9allocatorIcEEEE, symObjAddr: 0x27AC, symBinAddr: 0x1000142E8, symSize: 0x74 }
  - { offsetInCU: 0xCB89, offset: 0x25259, size: 0x8, addend: 0x0, symName: __ZN2yy6parser12make_PRINTLNENSt3__112basic_stringIcNS1_11char_traitsIcEENS1_9allocatorIcEEEE, symObjAddr: 0x2820, symBinAddr: 0x10001435C, symSize: 0x74 }
  - { offsetInCU: 0xCBAE, offset: 0x2527E, size: 0x8, addend: 0x0, symName: __ZN2yy6parser10make_LCHEVENSt3__112basic_stringIcNS1_11char_traitsIcEENS1_9allocatorIcEEEE, symObjAddr: 0x2894, symBinAddr: 0x1000143D0, symSize: 0x74 }
  - { offsetInCU: 0xCBD3, offset: 0x252A3, size: 0x8, addend: 0x0, symName: __ZN2yy6parser10make_RCHEVENSt3__112basic_stringIcNS1_11char_traitsIcEENS1_9allocatorIcEEEE, symObjAddr: 0x2908, symBinAddr: 0x100014444, symSize: 0x74 }
  - { offsetInCU: 0xCBF8, offset: 0x252C8, size: 0x8, addend: 0x0, symName: __ZN2yy6parser19make_STRING_KEYWORDENSt3__112basic_stringIcNS1_11char_traitsIcEENS1_9allocatorIcEEEE, symObjAddr: 0x297C, symBinAddr: 0x1000144B8, symSize: 0x74 }
  - { offsetInCU: 0xCC1D, offset: 0x252ED, size: 0x8, addend: 0x0, symName: __ZN2yy6parser9make_MAINENSt3__112basic_stringIcNS1_11char_traitsIcEENS1_9allocatorIcEEEE, symObjAddr: 0x29F0, symBinAddr: 0x10001452C, symSize: 0x74 }
  - { offsetInCU: 0xCC42, offset: 0x25312, size: 0x8, addend: 0x0, symName: __ZN2yy6parser15make_IDENTIFIERENSt3__112basic_stringIcNS1_11char_traitsIcEENS1_9allocatorIcEEEE, symObjAddr: 0x2A64, symBinAddr: 0x1000145A0, symSize: 0x74 }
  - { offsetInCU: 0xCC67, offset: 0x25337, size: 0x8, addend: 0x0, symName: __ZN2yy6parser8make_INTENSt3__112basic_stringIcNS1_11char_traitsIcEENS1_9allocatorIcEEEE, symObjAddr: 0x2AD8, symBinAddr: 0x100014614, symSize: 0x74 }
  - { offsetInCU: 0xCC8C, offset: 0x2535C, size: 0x8, addend: 0x0, symName: __ZN2yy6parser18make_STRINGLITERALENSt3__112basic_stringIcNS1_11char_traitsIcEENS1_9allocatorIcEEEE, symObjAddr: 0x2B4C, symBinAddr: 0x100014688, symSize: 0x74 }
  - { offsetInCU: 0xCCB1, offset: 0x25381, size: 0x8, addend: 0x0, symName: __ZN2yy6parser8make_ENDEv, symObjAddr: 0x2BC0, symBinAddr: 0x1000146FC, symSize: 0x2C }
  - { offsetInCU: 0xCCC5, offset: 0x25395, size: 0x8, addend: 0x0, symName: __ZL21yy_get_previous_statev, symObjAddr: 0x2BEC, symBinAddr: 0x100014728, symSize: 0x198 }
  - { offsetInCU: 0xCD21, offset: 0x253F1, size: 0x8, addend: 0x0, symName: __ZL16yy_try_NUL_transi, symObjAddr: 0x2D84, symBinAddr: 0x1000148C0, symSize: 0x158 }
  - { offsetInCU: 0xCD7D, offset: 0x2544D, size: 0x8, addend: 0x0, symName: __ZL18yy_get_next_bufferv, symObjAddr: 0x2EDC, symBinAddr: 0x100014A18, symSize: 0x7A4 }
  - { offsetInCU: 0xCE9C, offset: 0x2556C, size: 0x8, addend: 0x0, symName: __ZL14yy_fatal_errorPKc, symObjAddr: 0x3680, symBinAddr: 0x1000151BC, symSize: 0x3C }
  - { offsetInCU: 0xCEC7, offset: 0x25597, size: 0x8, addend: 0x0, symName: __Z9yyrestartP7__sFILE, symObjAddr: 0x36BC, symBinAddr: 0x1000151F8, symSize: 0xEC }
  - { offsetInCU: 0xCEF1, offset: 0x255C1, size: 0x8, addend: 0x0, symName: __ZL14yy_init_bufferP15yy_buffer_stateP7__sFILE, symObjAddr: 0x37A8, symBinAddr: 0x1000152E4, symSize: 0x124 }
  - { offsetInCU: 0xCF3A, offset: 0x2560A, size: 0x8, addend: 0x0, symName: __Z19yy_switch_to_bufferP15yy_buffer_state, symObjAddr: 0x38CC, symBinAddr: 0x100015408, symSize: 0x148 }
  - { offsetInCU: 0xCF64, offset: 0x25634, size: 0x8, addend: 0x0, symName: __Z7yyallocm, symObjAddr: 0x3A14, symBinAddr: 0x100015550, symSize: 0x24 }
  - { offsetInCU: 0xCF92, offset: 0x25662, size: 0x8, addend: 0x0, symName: __Z16yy_delete_bufferP15yy_buffer_state, symObjAddr: 0x3A38, symBinAddr: 0x100015574, symSize: 0xE4 }
  - { offsetInCU: 0xCFBC, offset: 0x2568C, size: 0x8, addend: 0x0, symName: __Z6yyfreePv, symObjAddr: 0x3B1C, symBinAddr: 0x100015658, symSize: 0x24 }
  - { offsetInCU: 0xCFE6, offset: 0x256B6, size: 0x8, addend: 0x0, symName: __Z15yy_flush_bufferP15yy_buffer_state, symObjAddr: 0x3B40, symBinAddr: 0x10001567C, symSize: 0xE0 }
  - { offsetInCU: 0xD010, offset: 0x256E0, size: 0x8, addend: 0x0, symName: __Z19yypush_buffer_stateP15yy_buffer_state, symObjAddr: 0x3C20, symBinAddr: 0x10001575C, symSize: 0x16C }
  - { offsetInCU: 0xD03A, offset: 0x2570A, size: 0x8, addend: 0x0, symName: __Z18yypop_buffer_statev, symObjAddr: 0x3D8C, symBinAddr: 0x1000158C8, symSize: 0x160 }
  - { offsetInCU: 0xD055, offset: 0x25725, size: 0x8, addend: 0x0, symName: __Z14yy_scan_bufferPcm, symObjAddr: 0x3EEC, symBinAddr: 0x100015A28, symSize: 0x128 }
  - { offsetInCU: 0xD0A1, offset: 0x25771, size: 0x8, addend: 0x0, symName: __Z14yy_scan_stringPKc, symObjAddr: 0x4014, symBinAddr: 0x100015B50, symSize: 0x3C }
  - { offsetInCU: 0xD0CF, offset: 0x2579F, size: 0x8, addend: 0x0, symName: __Z13yy_scan_bytesPKcm, symObjAddr: 0x4050, symBinAddr: 0x100015B8C, symSize: 0x110 }
  - { offsetInCU: 0xD148, offset: 0x25818, size: 0x8, addend: 0x0, symName: __Z12yyget_linenov, symObjAddr: 0x4160, symBinAddr: 0x100015C9C, symSize: 0xC }
  - { offsetInCU: 0xD167, offset: 0x25837, size: 0x8, addend: 0x0, symName: __Z8yyget_inv, symObjAddr: 0x416C, symBinAddr: 0x100015CA8, symSize: 0xC }
  - { offsetInCU: 0xD186, offset: 0x25856, size: 0x8, addend: 0x0, symName: __Z9yyget_outv, symObjAddr: 0x4178, symBinAddr: 0x100015CB4, symSize: 0xC }
  - { offsetInCU: 0xD1A5, offset: 0x25875, size: 0x8, addend: 0x0, symName: __Z10yyget_lengv, symObjAddr: 0x4184, symBinAddr: 0x100015CC0, symSize: 0xC }
  - { offsetInCU: 0xD1C4, offset: 0x25894, size: 0x8, addend: 0x0, symName: __Z10yyget_textv, symObjAddr: 0x4190, symBinAddr: 0x100015CCC, symSize: 0xC }
  - { offsetInCU: 0xD1E3, offset: 0x258B3, size: 0x8, addend: 0x0, symName: __Z12yyset_linenoi, symObjAddr: 0x419C, symBinAddr: 0x100015CD8, symSize: 0x1C }
  - { offsetInCU: 0xD20E, offset: 0x258DE, size: 0x8, addend: 0x0, symName: __Z8yyset_inP7__sFILE, symObjAddr: 0x41B8, symBinAddr: 0x100015CF4, symSize: 0x1C }
  - { offsetInCU: 0xD239, offset: 0x25909, size: 0x8, addend: 0x0, symName: __Z9yyset_outP7__sFILE, symObjAddr: 0x41D4, symBinAddr: 0x100015D10, symSize: 0x1C }
  - { offsetInCU: 0xD264, offset: 0x25934, size: 0x8, addend: 0x0, symName: __Z11yyget_debugv, symObjAddr: 0x41F0, symBinAddr: 0x100015D2C, symSize: 0xC }
  - { offsetInCU: 0xD283, offset: 0x25953, size: 0x8, addend: 0x0, symName: __Z11yyset_debugi, symObjAddr: 0x41FC, symBinAddr: 0x100015D38, symSize: 0x1C }
  - { offsetInCU: 0xD2AE, offset: 0x2597E, size: 0x8, addend: 0x0, symName: __Z13yylex_destroyv, symObjAddr: 0x4218, symBinAddr: 0x100015D54, symSize: 0x110 }
  - { offsetInCU: 0xD2CD, offset: 0x2599D, size: 0x8, addend: 0x0, symName: __ZL15yy_init_globalsv, symObjAddr: 0x4328, symBinAddr: 0x100015E64, symSize: 0x6C }
  - { offsetInCU: 0xD2EC, offset: 0x259BC, size: 0x8, addend: 0x0, symName: __Z9yyreallocPvm, symObjAddr: 0x4394, symBinAddr: 0x100015ED0, symSize: 0x2C }
  - { offsetInCU: 0xD329, offset: 0x259F9, size: 0x8, addend: 0x0, symName: __ZN2yy6parser11symbol_typeC1EiNSt3__112basic_stringIcNS2_11char_traitsIcEENS2_9allocatorIcEEEE, symObjAddr: 0x43F4, symBinAddr: 0x100015EFC, symSize: 0x3C }
  - { offsetInCU: 0xD372, offset: 0x25A42, size: 0x8, addend: 0x0, symName: __ZN2yy6parser11symbol_typeC2EiNSt3__112basic_stringIcNS2_11char_traitsIcEENS2_9allocatorIcEEEE, symObjAddr: 0x45D0, symBinAddr: 0x100015F38, symSize: 0x3C }
  - { offsetInCU: 0xD3BB, offset: 0x25A8B, size: 0x8, addend: 0x0, symName: __ZN2yy6parser12basic_symbolINS0_7by_kindEEC2ENS0_5token15token_kind_typeEONSt3__112basic_stringIcNS6_11char_traitsIcEENS6_9allocatorIcEEEE, symObjAddr: 0x460C, symBinAddr: 0x100015F74, symSize: 0x48 }
  - { offsetInCU: 0xD403, offset: 0x25AD3, size: 0x8, addend: 0x0, symName: __ZN2yy6parser7by_kindC2ENS0_5token15token_kind_typeE, symObjAddr: 0x4654, symBinAddr: 0x100015FBC, symSize: 0x3C }
  - { offsetInCU: 0xD443, offset: 0x25B13, size: 0x8, addend: 0x0, symName: __ZN2yy6parser10value_typeC1INSt3__112basic_stringIcNS3_11char_traitsIcEENS3_9allocatorIcEEEEEEOT_, symObjAddr: 0x4690, symBinAddr: 0x100015FF8, symSize: 0x34 }
  - { offsetInCU: 0xD484, offset: 0x25B54, size: 0x8, addend: 0x0, symName: __ZN2yy6parser10value_typeC2INSt3__112basic_stringIcNS3_11char_traitsIcEENS3_9allocatorIcEEEEEEOT_, symObjAddr: 0x4734, symBinAddr: 0x10001609C, symSize: 0x38 }
  - { offsetInCU: 0xD4C5, offset: 0x25B95, size: 0x8, addend: 0x0, symName: __ZN2yy6parser11symbol_typeC1Ei, symObjAddr: 0x4788, symBinAddr: 0x1000160D4, symSize: 0x34 }
  - { offsetInCU: 0xD4FE, offset: 0x25BCE, size: 0x8, addend: 0x0, symName: __ZN2yy6parser11symbol_typeC2Ei, symObjAddr: 0x47BC, symBinAddr: 0x100016108, symSize: 0x34 }
  - { offsetInCU: 0xD537, offset: 0x25C07, size: 0x8, addend: 0x0, symName: __ZN2yy6parser12basic_symbolINS0_7by_kindEEC2ENS0_5token15token_kind_typeE, symObjAddr: 0x47F0, symBinAddr: 0x10001613C, symSize: 0x40 }
  - { offsetInCU: 0x9312, offset: 0x2EF6A, size: 0x8, addend: 0x0, symName: __ZNSt3__124__put_character_sequenceB7v160006IcNS_11char_traitsIcEEEERNS_13basic_ostreamIT_T0_EES7_PKS4_m, symObjAddr: 0x790, symBinAddr: 0x100016854, symSize: 0x1EC }
  - { offsetInCU: 0xA44B, offset: 0x300A3, size: 0x8, addend: 0x0, symName: __ZNSt3__1lsB7v160006INS_11char_traitsIcEEEERNS_13basic_ostreamIcT_EES6_PKc, symObjAddr: 0x58C, symBinAddr: 0x100016708, symSize: 0x48 }
  - { offsetInCU: 0xA491, offset: 0x300E9, size: 0x8, addend: 0x0, symName: __ZNSt3__1lsB7v160006IcNS_11char_traitsIcEENS_9allocatorIcEEEERNS_13basic_ostreamIT_T0_EES9_RKNS_12basic_stringIS6_S7_T1_EE, symObjAddr: 0x5D4, symBinAddr: 0x100016750, symSize: 0x4C }
  - { offsetInCU: 0xA4E9, offset: 0x30141, size: 0x8, addend: 0x0, symName: __ZNSt3__14endlB7v160006IcNS_11char_traitsIcEEEERNS_13basic_ostreamIT_T0_EES7_, symObjAddr: 0x64C, symBinAddr: 0x1000167C8, symSize: 0x58 }
  - { offsetInCU: 0xA529, offset: 0x30181, size: 0x8, addend: 0x0, symName: __ZNSt3__116__pad_and_outputB7v160006IcNS_11char_traitsIcEEEENS_19ostreambuf_iteratorIT_T0_EES6_PKS4_S8_S8_RNS_8ios_baseES4_, symObjAddr: 0x9CC, symBinAddr: 0x100016A5C, symSize: 0x240 }
  - { offsetInCU: 0xA5F9, offset: 0x30251, size: 0x8, addend: 0x0, symName: __ZNSt3__19use_facetB7v160006INS_5ctypeIcEEEERKT_RKNS_6localeE, symObjAddr: 0x11D8, symBinAddr: 0x100016FF0, symSize: 0x2C }
  - { offsetInCU: 0xAAC8, offset: 0x30720, size: 0x8, addend: 0x0, symName: __ZNSt3__111make_sharedB7v160006I5ScopeJDnRA1_KcRA8_S2_EvEENS_10shared_ptrIT_EEDpOT0_, symObjAddr: 0x19F4, symBinAddr: 0x100017568, symSize: 0x50 }
  - { offsetInCU: 0xAB33, offset: 0x3078B, size: 0x8, addend: 0x0, symName: __ZNSt3__115allocate_sharedB7v160006I5ScopeNS_9allocatorIS1_EEJDnRA1_KcRA8_S4_EvEENS_10shared_ptrIT_EERKT0_DpOT1_, symObjAddr: 0x1AA4, symBinAddr: 0x1000175EC, symSize: 0xA8 }
  - { offsetInCU: 0xAE8E, offset: 0x30AE6, size: 0x8, addend: 0x0, symName: __ZNSt3__134__libcpp_atomic_refcount_incrementB7v160006IlEET_RS1_, symObjAddr: 0x26B8, symBinAddr: 0x1000180EC, symSize: 0x30 }
  - { offsetInCU: 0xAEC3, offset: 0x30B1B, size: 0x8, addend: 0x0, symName: __ZNSt3__119__debug_db_insert_cB7v160006INS_6vectorINS_10shared_ptrI5ScopeEENS_9allocatorIS4_EEEEEEvPT_, symObjAddr: 0x277C, symBinAddr: 0x1000181B0, symSize: 0x10 }
  - { offsetInCU: 0xAF27, offset: 0x30B7F, size: 0x8, addend: 0x0, symName: __ZNSt3__134__libcpp_atomic_refcount_decrementB7v160006IlEET_RS1_, symObjAddr: 0x2D94, symBinAddr: 0x1000187A4, symSize: 0x30 }
  - { offsetInCU: 0xAF5C, offset: 0x30BB4, size: 0x8, addend: 0x0, symName: __ZNSt3__118__debug_db_erase_cB7v160006INS_6vectorINS_10shared_ptrI5ScopeEENS_9allocatorIS4_EEEEEEvPT_, symObjAddr: 0x3570, symBinAddr: 0x100018F04, symSize: 0x10 }
  - { offsetInCU: 0xAF8D, offset: 0x30BE5, size: 0x8, addend: 0x0, symName: __ZNSt3__112__to_addressB7v160006INS_10shared_ptrI5ScopeEEEEPT_S5_, symObjAddr: 0x36B4, symBinAddr: 0x100019048, symSize: 0x14 }
  - { offsetInCU: 0xB019, offset: 0x30C71, size: 0x8, addend: 0x0, symName: __ZNSt3__121__libcpp_relaxed_loadB7v160006IlEET_PKS1_, symObjAddr: 0x3B4C, symBinAddr: 0x1000194E0, symSize: 0x20 }
  - { offsetInCU: 0xB04E, offset: 0x30CA6, size: 0x8, addend: 0x0, symName: __ZNSt3__14swapB7v160006IP5ScopeEENS_9enable_ifIXaasr21is_move_constructibleIT_EE5valuesr18is_move_assignableIS4_EE5valueEvE4typeERS4_S7_, symObjAddr: 0x3C6C, symBinAddr: 0x100019600, symSize: 0x3C }
  - { offsetInCU: 0xB09F, offset: 0x30CF7, size: 0x8, addend: 0x0, symName: __ZNSt3__14swapB7v160006IPNS_19__shared_weak_countEEENS_9enable_ifIXaasr21is_move_constructibleIT_EE5valuesr18is_move_assignableIS4_EE5valueEvE4typeERS4_S7_, symObjAddr: 0x3CA8, symBinAddr: 0x10001963C, symSize: 0x3C }
  - { offsetInCU: 0xB0F0, offset: 0x30D48, size: 0x8, addend: 0x0, symName: __ZNSt3__1neB7v160006ERKNS_20__map_const_iteratorINS_21__tree_const_iteratorINS_12__value_typeINS_12basic_stringIcNS_11char_traitsIcEENS_9allocatorIcEEEENS_10shared_ptrI6RecordEEEEPNS_11__tree_nodeISC_PvEElEEEESK_, symObjAddr: 0x41F4, symBinAddr: 0x100019AC0, symSize: 0x30 }
  - { offsetInCU: 0xB12D, offset: 0x30D85, size: 0x8, addend: 0x0, symName: __ZNSt3__1neB7v160006IPKNS_10shared_ptrI5ScopeEEEEbRKNS_11__wrap_iterIT_EESA_, symObjAddr: 0x432C, symBinAddr: 0x100019BF8, symSize: 0x34 }
  - { offsetInCU: 0xB170, offset: 0x30DC8, size: 0x8, addend: 0x0, symName: __ZNSt3__1plB7v160006IcNS_11char_traitsIcEENS_9allocatorIcEEEENS_12basic_stringIT_T0_T1_EERKS9_PKS6_, symObjAddr: 0x4378, symBinAddr: 0x100019C44, symSize: 0x11C }
  - { offsetInCU: 0xB211, offset: 0x30E69, size: 0x8, addend: 0x0, symName: __ZNSt3__1neB7v160006ERKNS_21__tree_const_iteratorINS_12__value_typeINS_12basic_stringIcNS_11char_traitsIcEENS_9allocatorIcEEEENS_10shared_ptrI6RecordEEEEPNS_11__tree_nodeISB_PvEElEESI_, symObjAddr: 0x45D8, symBinAddr: 0x100019EA4, symSize: 0x34 }
  - { offsetInCU: 0xB24E, offset: 0x30EA6, size: 0x8, addend: 0x0, symName: __ZNSt3__1eqB7v160006ERKNS_21__tree_const_iteratorINS_12__value_typeINS_12basic_stringIcNS_11char_traitsIcEENS_9allocatorIcEEEENS_10shared_ptrI6RecordEEEEPNS_11__tree_nodeISB_PvEElEESI_, symObjAddr: 0x460C, symBinAddr: 0x100019ED8, symSize: 0x30 }
  - { offsetInCU: 0xB2BE, offset: 0x30F16, size: 0x8, addend: 0x0, symName: __ZNSt3__116__tree_next_iterB7v160006IPNS_15__tree_end_nodeIPNS_16__tree_node_baseIPvEEEES5_EET_T0_, symObjAddr: 0x46E0, symBinAddr: 0x100019FAC, symSize: 0x90 }
  - { offsetInCU: 0xB2FC, offset: 0x30F54, size: 0x8, addend: 0x0, symName: __ZNSt3__110__tree_minB7v160006IPNS_16__tree_node_baseIPvEEEET_S5_, symObjAddr: 0x4770, symBinAddr: 0x10001A03C, symSize: 0x40 }
  - { offsetInCU: 0xB331, offset: 0x30F89, size: 0x8, addend: 0x0, symName: __ZNSt3__120__tree_is_left_childB7v160006IPNS_16__tree_node_baseIPvEEEEbT_, symObjAddr: 0x47B0, symBinAddr: 0x10001A07C, symSize: 0x2C }
  - { offsetInCU: 0xB366, offset: 0x30FBE, size: 0x8, addend: 0x0, symName: __ZNSt3__1eqB7v160006IPKNS_10shared_ptrI5ScopeEEEEbRKNS_11__wrap_iterIT_EESA_, symObjAddr: 0x4888, symBinAddr: 0x10001A154, symSize: 0x48 }
  - { offsetInCU: 0xC3AC, offset: 0x32004, size: 0x8, addend: 0x0, symName: __ZNSt3__110shared_ptrI5ScopeE18__enable_weak_thisB7v160006IS1_S1_vEEvPKNS_23enable_shared_from_thisIT_EEPT0_, symObjAddr: 0x3960, symBinAddr: 0x1000192F4, symSize: 0x7C }
  - { offsetInCU: 0xE096, offset: 0x33CEE, size: 0x8, addend: 0x0, symName: __ZN2yy6parser5errorERKNSt3__112basic_stringIcNS1_11char_traitsIcEENS1_9allocatorIcEEEE, symObjAddr: 0x0, symBinAddr: 0x10001617C, symSize: 0x7C }
  - { offsetInCU: 0xE0CC, offset: 0x33D24, size: 0x8, addend: 0x0, symName: __ZNKSt3__112basic_stringIcNS_11char_traitsIcEENS_9allocatorIcEEE5c_strB7v160006Ev, symObjAddr: 0x7C, symBinAddr: 0x1000161F8, symSize: 0x24 }
  - { offsetInCU: 0xE0F2, offset: 0x33D4A, size: 0x8, addend: 0x0, symName: _main, symObjAddr: 0xA0, symBinAddr: 0x10001621C, symSize: 0x1AC }
  - { offsetInCU: 0xE15B, offset: 0x33DB3, size: 0x8, addend: 0x0, symName: __ZN4Node10print_treeEi, symObjAddr: 0x24C, symBinAddr: 0x1000163C8, symSize: 0x110 }
  - { offsetInCU: 0xE1C9, offset: 0x33E21, size: 0x8, addend: 0x0, symName: __ZN4Node13generate_treeEv, symObjAddr: 0x35C, symBinAddr: 0x1000164D8, symSize: 0x14C }
  - { offsetInCU: 0xE21C, offset: 0x33E74, size: 0x8, addend: 0x0, symName: __ZN11SymbolTableC1Ev, symObjAddr: 0x4A8, symBinAddr: 0x100016624, symSize: 0x2C }
  - { offsetInCU: 0xE246, offset: 0x33E9E, size: 0x8, addend: 0x0, symName: __ZN11SymbolTable10printTableEv, symObjAddr: 0x4D4, symBinAddr: 0x100016650, symSize: 0x8C }
  - { offsetInCU: 0xE26C, offset: 0x33EC4, size: 0x8, addend: 0x0, symName: __ZN11SymbolTableD1Ev, symObjAddr: 0x560, symBinAddr: 0x1000166DC, symSize: 0x2C }
  - { offsetInCU: 0xE298, offset: 0x33EF0, size: 0x8, addend: 0x0, symName: __ZNSt3__113basic_ostreamIcNS_11char_traitsIcEEElsB7v160006EPFRS3_S4_E, symObjAddr: 0x620, symBinAddr: 0x10001679C, symSize: 0x2C }
  - { offsetInCU: 0xE2CC, offset: 0x33F24, size: 0x8, addend: 0x0, symName: __ZNSt3__115__list_iteratorIP4NodePvEppB7v160006Ei, symObjAddr: 0x75C, symBinAddr: 0x100016820, symSize: 0x34 }
  - { offsetInCU: 0xE326, offset: 0x33F7E, size: 0x8, addend: 0x0, symName: __ZNKSt3__113basic_ostreamIcNS_11char_traitsIcEEE6sentrycvbB7v160006Ev, symObjAddr: 0x9B0, symBinAddr: 0x100016A40, symSize: 0x1C }
  - { offsetInCU: 0xE34C, offset: 0x33FA4, size: 0x8, addend: 0x0, symName: __ZNSt3__119ostreambuf_iteratorIcNS_11char_traitsIcEEEC1B7v160006ERNS_13basic_ostreamIcS2_EE, symObjAddr: 0xC0C, symBinAddr: 0x100016C9C, symSize: 0x34 }
  - { offsetInCU: 0xE384, offset: 0x33FDC, size: 0x8, addend: 0x0, symName: __ZNKSt3__18ios_base5flagsB7v160006Ev, symObjAddr: 0xC40, symBinAddr: 0x100016CD0, symSize: 0x18 }
  - { offsetInCU: 0xE3AC, offset: 0x34004, size: 0x8, addend: 0x0, symName: __ZNKSt3__19basic_iosIcNS_11char_traitsIcEEE4fillB7v160006Ev, symObjAddr: 0xC58, symBinAddr: 0x100016CE8, symSize: 0x64 }
  - { offsetInCU: 0xE3D4, offset: 0x3402C, size: 0x8, addend: 0x0, symName: __ZNKSt3__119ostreambuf_iteratorIcNS_11char_traitsIcEEE6failedB7v160006Ev, symObjAddr: 0xCBC, symBinAddr: 0x100016D4C, symSize: 0x24 }
  - { offsetInCU: 0xE3FA, offset: 0x34052, size: 0x8, addend: 0x0, symName: __ZNSt3__19basic_iosIcNS_11char_traitsIcEEE8setstateB7v160006Ej, symObjAddr: 0xCE0, symBinAddr: 0x100016D70, symSize: 0x2C }
  - { offsetInCU: 0xE42F, offset: 0x34087, size: 0x8, addend: 0x0, symName: __ZNKSt3__18ios_base5widthB7v160006Ev, symObjAddr: 0xD18, symBinAddr: 0x100016D9C, symSize: 0x18 }
  - { offsetInCU: 0xE457, offset: 0x340AF, size: 0x8, addend: 0x0, symName: __ZNSt3__115basic_streambufIcNS_11char_traitsIcEEE5sputnB7v160006EPKcl, symObjAddr: 0xD30, symBinAddr: 0x100016DB4, symSize: 0x3C }
  - { offsetInCU: 0xE499, offset: 0x340F1, size: 0x8, addend: 0x0, symName: __ZNSt3__112basic_stringIcNS_11char_traitsIcEENS_9allocatorIcEEEC1B7v160006Emc, symObjAddr: 0xD6C, symBinAddr: 0x100016DF0, symSize: 0x3C }
  - { offsetInCU: 0xE4E1, offset: 0x34139, size: 0x8, addend: 0x0, symName: __ZNSt3__18ios_base5widthB7v160006El, symObjAddr: 0xDD0, symBinAddr: 0x100016E2C, symSize: 0x2C }
  - { offsetInCU: 0xE527, offset: 0x3417F, size: 0x8, addend: 0x0, symName: __ZNSt3__112basic_stringIcNS_11char_traitsIcEENS_9allocatorIcEEEC2B7v160006Emc, symObjAddr: 0xDFC, symBinAddr: 0x100016E58, symSize: 0x54 }
  - { offsetInCU: 0xE574, offset: 0x341CC, size: 0x8, addend: 0x0, symName: __ZNSt3__119ostreambuf_iteratorIcNS_11char_traitsIcEEEC2B7v160006ERNS_13basic_ostreamIcS2_EE, symObjAddr: 0x1094, symBinAddr: 0x100016EAC, symSize: 0x54 }
  - { offsetInCU: 0xE5AC, offset: 0x34204, size: 0x8, addend: 0x0, symName: __ZNKSt3__19basic_iosIcNS_11char_traitsIcEEE5rdbufB7v160006Ev, symObjAddr: 0x10E8, symBinAddr: 0x100016F00, symSize: 0x24 }
  - { offsetInCU: 0xE5D4, offset: 0x3422C, size: 0x8, addend: 0x0, symName: __ZNKSt3__18ios_base5rdbufB7v160006Ev, symObjAddr: 0x110C, symBinAddr: 0x100016F24, symSize: 0x18 }
  - { offsetInCU: 0xE5FA, offset: 0x34252, size: 0x8, addend: 0x0, symName: __ZNSt3__111char_traitsIcE11eq_int_typeEii, symObjAddr: 0x1124, symBinAddr: 0x100016F3C, symSize: 0x28 }
  - { offsetInCU: 0xE62B, offset: 0x34283, size: 0x8, addend: 0x0, symName: __ZNSt3__111char_traitsIcE3eofEv, symObjAddr: 0x114C, symBinAddr: 0x100016F64, symSize: 0x8 }
  - { offsetInCU: 0xE63F, offset: 0x34297, size: 0x8, addend: 0x0, symName: __ZNKSt3__19basic_iosIcNS_11char_traitsIcEEE5widenB7v160006Ec, symObjAddr: 0x1154, symBinAddr: 0x100016F6C, symSize: 0x84 }
  - { offsetInCU: 0xE6AD, offset: 0x34305, size: 0x8, addend: 0x0, symName: __ZNKSt3__15ctypeIcE5widenB7v160006Ec, symObjAddr: 0x1204, symBinAddr: 0x10001701C, symSize: 0x38 }
  - { offsetInCU: 0xE6E2, offset: 0x3433A, size: 0x8, addend: 0x0, symName: __ZNSt3__18ios_base8setstateB7v160006Ej, symObjAddr: 0x123C, symBinAddr: 0x100017054, symSize: 0x34 }
  - { offsetInCU: 0xE719, offset: 0x34371, size: 0x8, addend: 0x0, symName: __ZNSt3__114basic_ofstreamIcNS_11char_traitsIcEEEC1Ev, symObjAddr: 0x1514, symBinAddr: 0x100017088, symSize: 0xE8 }
  - { offsetInCU: 0xE745, offset: 0x3439D, size: 0x8, addend: 0x0, symName: __ZN4Node21generate_tree_contentERiPNSt3__114basic_ofstreamIcNS1_11char_traitsIcEEEE, symObjAddr: 0x15FC, symBinAddr: 0x100017170, symSize: 0x168 }
  - { offsetInCU: 0xE7A4, offset: 0x343FC, size: 0x8, addend: 0x0, symName: __ZNSt3__114basic_ofstreamIcNS_11char_traitsIcEEE5closeEv, symObjAddr: 0x1764, symBinAddr: 0x1000172D8, symSize: 0x58 }
  - { offsetInCU: 0xE7D1, offset: 0x34429, size: 0x8, addend: 0x0, symName: __ZNSt3__114basic_ofstreamIcNS_11char_traitsIcEEED1Ev, symObjAddr: 0x17BC, symBinAddr: 0x100017330, symSize: 0x40 }
  - { offsetInCU: 0xE7FE, offset: 0x34456, size: 0x8, addend: 0x0, symName: __ZNSt3__19basic_iosIcNS_11char_traitsIcEEEC2B7v160006Ev, symObjAddr: 0x17FC, symBinAddr: 0x100017370, symSize: 0x44 }
  - { offsetInCU: 0xE828, offset: 0x34480, size: 0x8, addend: 0x0, symName: __ZNSt3__113basic_ostreamIcNS_11char_traitsIcEEEC2B7v160006EPNS_15basic_streambufIcS2_EE, symObjAddr: 0x1840, symBinAddr: 0x1000173B4, symSize: 0x60 }
  - { offsetInCU: 0xE86D, offset: 0x344C5, size: 0x8, addend: 0x0, symName: __ZNSt3__18ios_baseC2B7v160006Ev, symObjAddr: 0x18A0, symBinAddr: 0x100017414, symSize: 0x24 }
  - { offsetInCU: 0xE897, offset: 0x344EF, size: 0x8, addend: 0x0, symName: __ZNSt3__19basic_iosIcNS_11char_traitsIcEEE4initB7v160006EPNS_15basic_streambufIcS2_EE, symObjAddr: 0x18C4, symBinAddr: 0x100017438, symSize: 0x44 }
  - { offsetInCU: 0xE8CE, offset: 0x34526, size: 0x8, addend: 0x0, symName: __ZNSt3__114basic_ofstreamIcNS_11char_traitsIcEEED2Ev, symObjAddr: 0x1908, symBinAddr: 0x10001747C, symSize: 0x64 }
  - { offsetInCU: 0xE908, offset: 0x34560, size: 0x8, addend: 0x0, symName: __ZTv0_n24_NSt3__114basic_ofstreamIcNS_11char_traitsIcEEED1Ev, symObjAddr: 0x196C, symBinAddr: 0x1000174E0, symSize: 0x28 }
  - { offsetInCU: 0xE91F, offset: 0x34577, size: 0x8, addend: 0x0, symName: __ZN11SymbolTableC2Ev, symObjAddr: 0x1994, symBinAddr: 0x100017508, symSize: 0x60 }
  - { offsetInCU: 0xE949, offset: 0x345A1, size: 0x8, addend: 0x0, symName: __ZNSt3__110shared_ptrI5ScopeEC1B7v160006ERKS2_, symObjAddr: 0x1A44, symBinAddr: 0x1000175B8, symSize: 0x34 }
  - { offsetInCU: 0xE982, offset: 0x345DA, size: 0x8, addend: 0x0, symName: __ZNSt3__19allocatorI5ScopeEC1B7v160006Ev, symObjAddr: 0x1B4C, symBinAddr: 0x100017694, symSize: 0x2C }
  - { offsetInCU: 0xE9E8, offset: 0x34640, size: 0x8, addend: 0x0, symName: __ZNSt3__118__allocation_guardINS_9allocatorINS_20__shared_ptr_emplaceI5ScopeNS1_IS3_EEEEEEEC1B7v160006IS4_EET_m, symObjAddr: 0x1B78, symBinAddr: 0x1000176C0, symSize: 0x34 }
  - { offsetInCU: 0xEA37, offset: 0x3468F, size: 0x8, addend: 0x0, symName: __ZNKSt3__118__allocation_guardINS_9allocatorINS_20__shared_ptr_emplaceI5ScopeNS1_IS3_EEEEEEE5__getB7v160006Ev, symObjAddr: 0x1BAC, symBinAddr: 0x1000176F4, symSize: 0x18 }
  - { offsetInCU: 0xEA82, offset: 0x346DA, size: 0x8, addend: 0x0, symName: __ZNSt3__120__shared_ptr_emplaceI5ScopeNS_9allocatorIS1_EEEC1B7v160006IJDnRA1_KcRA8_S6_EEES3_DpOT_, symObjAddr: 0x1BC4, symBinAddr: 0x10001770C, symSize: 0x44 }
  - { offsetInCU: 0xEAFD, offset: 0x34755, size: 0x8, addend: 0x0, symName: __ZNSt3__118__allocation_guardINS_9allocatorINS_20__shared_ptr_emplaceI5ScopeNS1_IS3_EEEEEEE13__release_ptrB7v160006Ev, symObjAddr: 0x1C08, symBinAddr: 0x100017750, symSize: 0x24 }
  - { offsetInCU: 0xEB31, offset: 0x34789, size: 0x8, addend: 0x0, symName: __ZNSt3__110shared_ptrI5ScopeE27__create_with_control_blockB7v160006IS1_NS_20__shared_ptr_emplaceIS1_NS_9allocatorIS1_EEEEEES2_PT_PT0_, symObjAddr: 0x1C2C, symBinAddr: 0x100017774, symSize: 0x98 }
  - { offsetInCU: 0xEB86, offset: 0x347DE, size: 0x8, addend: 0x0, symName: __ZNSt3__120__shared_ptr_emplaceI5ScopeNS_9allocatorIS1_EEE10__get_elemB7v160006Ev, symObjAddr: 0x1CC4, symBinAddr: 0x10001780C, symSize: 0x28 }
  - { offsetInCU: 0xEBAC, offset: 0x34804, size: 0x8, addend: 0x0, symName: __ZNSt3__118__allocation_guardINS_9allocatorINS_20__shared_ptr_emplaceI5ScopeNS1_IS3_EEEEEEED1B7v160006Ev, symObjAddr: 0x1CEC, symBinAddr: 0x100017834, symSize: 0x2C }
  - { offsetInCU: 0xEBD6, offset: 0x3482E, size: 0x8, addend: 0x0, symName: __ZNSt3__118__allocation_guardINS_9allocatorINS_20__shared_ptr_emplaceI5ScopeNS1_IS3_EEEEEEEC2B7v160006IS4_EET_m, symObjAddr: 0x1D18, symBinAddr: 0x100017860, symSize: 0x50 }
  - { offsetInCU: 0xEC25, offset: 0x3487D, size: 0x8, addend: 0x0, symName: __ZNSt3__19allocatorINS_20__shared_ptr_emplaceI5ScopeNS0_IS2_EEEEEC1B7v160006IS2_EERKNS0_IT_EE, symObjAddr: 0x1D68, symBinAddr: 0x1000178B0, symSize: 0x34 }
  - { offsetInCU: 0xEC63, offset: 0x348BB, size: 0x8, addend: 0x0, symName: __ZNSt3__116allocator_traitsINS_9allocatorINS_20__shared_ptr_emplaceI5ScopeNS1_IS3_EEEEEEE8allocateB7v160006ERS6_m, symObjAddr: 0x1D9C, symBinAddr: 0x1000178E4, symSize: 0x2C }
  - { offsetInCU: 0xEC96, offset: 0x348EE, size: 0x8, addend: 0x0, symName: __ZNSt3__19allocatorINS_20__shared_ptr_emplaceI5ScopeNS0_IS2_EEEEEC2B7v160006IS2_EERKNS0_IT_EE, symObjAddr: 0x1DC8, symBinAddr: 0x100017910, symSize: 0x30 }
  - { offsetInCU: 0xECD4, offset: 0x3492C, size: 0x8, addend: 0x0, symName: __ZNSt3__116__non_trivial_ifILb1ENS_9allocatorINS_20__shared_ptr_emplaceI5ScopeNS1_IS3_EEEEEEEC2B7v160006Ev, symObjAddr: 0x1DF8, symBinAddr: 0x100017940, symSize: 0x14 }
  - { offsetInCU: 0xECFE, offset: 0x34956, size: 0x8, addend: 0x0, symName: __ZNSt3__19allocatorINS_20__shared_ptr_emplaceI5ScopeNS0_IS2_EEEEE8allocateB7v160006Em, symObjAddr: 0x1E0C, symBinAddr: 0x100017954, symSize: 0x5C }
  - { offsetInCU: 0xED3C, offset: 0x34994, size: 0x8, addend: 0x0, symName: __ZNSt3__116allocator_traitsINS_9allocatorINS_20__shared_ptr_emplaceI5ScopeNS1_IS3_EEEEEEE8max_sizeB7v160006IS6_vEEmRKS6_, symObjAddr: 0x1E68, symBinAddr: 0x1000179B0, symSize: 0x24 }
  - { offsetInCU: 0xED6A, offset: 0x349C2, size: 0x8, addend: 0x0, symName: __ZNKSt3__19allocatorINS_20__shared_ptr_emplaceI5ScopeNS0_IS2_EEEEE8max_sizeB7v160006Ev, symObjAddr: 0x1EE8, symBinAddr: 0x1000179D4, symSize: 0x18 }
  - { offsetInCU: 0xED90, offset: 0x349E8, size: 0x8, addend: 0x0, symName: __ZNSt3__120__shared_ptr_emplaceI5ScopeNS_9allocatorIS1_EEEC2B7v160006IJDnRA1_KcRA8_S6_EEES3_DpOT_, symObjAddr: 0x1F24, symBinAddr: 0x1000179EC, symSize: 0x150 }
  - { offsetInCU: 0xEE0B, offset: 0x34A63, size: 0x8, addend: 0x0, symName: __ZNSt3__119__shared_weak_countC2B7v160006El, symObjAddr: 0x2074, symBinAddr: 0x100017B3C, symSize: 0x54 }
  - { offsetInCU: 0xEE43, offset: 0x34A9B, size: 0x8, addend: 0x0, symName: __ZNSt3__120__shared_ptr_emplaceI5ScopeNS_9allocatorIS1_EEE8_StorageC1B7v160006EOS3_, symObjAddr: 0x20C8, symBinAddr: 0x100017B90, symSize: 0x34 }
  - { offsetInCU: 0xEE7C, offset: 0x34AD4, size: 0x8, addend: 0x0, symName: __ZNSt3__110shared_ptrI5ScopeEC1B7v160006EDn, symObjAddr: 0x20FC, symBinAddr: 0x100017BC4, symSize: 0x34 }
  - { offsetInCU: 0xEEB7, offset: 0x34B0F, size: 0x8, addend: 0x0, symName: __ZN5ScopeC1ENSt3__110shared_ptrIS_EERKNS0_12basic_stringIcNS0_11char_traitsIcEENS0_9allocatorIcEEEESA_, symObjAddr: 0x2164, symBinAddr: 0x100017BF8, symSize: 0x44 }
  - { offsetInCU: 0xEF0C, offset: 0x34B64, size: 0x8, addend: 0x0, symName: __ZNSt3__110shared_ptrI5ScopeED1B7v160006Ev, symObjAddr: 0x21A8, symBinAddr: 0x100017C3C, symSize: 0x2C }
  - { offsetInCU: 0xEF36, offset: 0x34B8E, size: 0x8, addend: 0x0, symName: __ZNSt3__120__shared_ptr_emplaceI5ScopeNS_9allocatorIS1_EEE8_StorageD1B7v160006Ev, symObjAddr: 0x21D4, symBinAddr: 0x100017C68, symSize: 0x2C }
  - { offsetInCU: 0xEF60, offset: 0x34BB8, size: 0x8, addend: 0x0, symName: __ZNSt3__120__shared_ptr_emplaceI5ScopeNS_9allocatorIS1_EEED1Ev, symObjAddr: 0x2200, symBinAddr: 0x100017C94, symSize: 0x2C }
  - { offsetInCU: 0xEF8D, offset: 0x34BE5, size: 0x8, addend: 0x0, symName: __ZNSt3__120__shared_ptr_emplaceI5ScopeNS_9allocatorIS1_EEED0Ev, symObjAddr: 0x222C, symBinAddr: 0x100017CC0, symSize: 0x30 }
  - { offsetInCU: 0xEFBA, offset: 0x34C12, size: 0x8, addend: 0x0, symName: __ZNSt3__120__shared_ptr_emplaceI5ScopeNS_9allocatorIS1_EEE16__on_zero_sharedEv, symObjAddr: 0x225C, symBinAddr: 0x100017CF0, symSize: 0x28 }
  - { offsetInCU: 0xEFE0, offset: 0x34C38, size: 0x8, addend: 0x0, symName: __ZNSt3__120__shared_ptr_emplaceI5ScopeNS_9allocatorIS1_EEE21__on_zero_shared_weakEv, symObjAddr: 0x2284, symBinAddr: 0x100017D18, symSize: 0x5C }
  - { offsetInCU: 0xF021, offset: 0x34C79, size: 0x8, addend: 0x0, symName: __ZNSt3__114__shared_countC2B7v160006El, symObjAddr: 0x22E0, symBinAddr: 0x100017D74, symSize: 0x30 }
  - { offsetInCU: 0xF059, offset: 0x34CB1, size: 0x8, addend: 0x0, symName: __ZNSt3__120__shared_ptr_emplaceI5ScopeNS_9allocatorIS1_EEE8_StorageC2B7v160006EOS3_, symObjAddr: 0x2310, symBinAddr: 0x100017DA4, symSize: 0x30 }
  - { offsetInCU: 0xF092, offset: 0x34CEA, size: 0x8, addend: 0x0, symName: __ZNSt3__120__shared_ptr_emplaceI5ScopeNS_9allocatorIS1_EEE8_Storage11__get_allocEv, symObjAddr: 0x2340, symBinAddr: 0x100017DD4, symSize: 0x3C }
  - { offsetInCU: 0xF0E5, offset: 0x34D3D, size: 0x8, addend: 0x0, symName: __ZNSt3__117__compressed_pairINS_9allocatorI5ScopeEES2_E16__get_first_baseB7v160006EPS4_, symObjAddr: 0x237C, symBinAddr: 0x100017E10, symSize: 0x14 }
  - { offsetInCU: 0xF108, offset: 0x34D60, size: 0x8, addend: 0x0, symName: __ZNSt3__110shared_ptrI5ScopeEC2B7v160006EDn, symObjAddr: 0x2390, symBinAddr: 0x100017E24, symSize: 0x20 }
  - { offsetInCU: 0xF13E, offset: 0x34D96, size: 0x8, addend: 0x0, symName: __ZN5ScopeC2ENSt3__110shared_ptrIS_EERKNS0_12basic_stringIcNS0_11char_traitsIcEENS0_9allocatorIcEEEESA_, symObjAddr: 0x2410, symBinAddr: 0x100017E44, symSize: 0xD8 }
  - { offsetInCU: 0xF193, offset: 0x34DEB, size: 0x8, addend: 0x0, symName: __ZNSt3__123enable_shared_from_thisI5ScopeEC2B7v160006Ev, symObjAddr: 0x24E8, symBinAddr: 0x100017F1C, symSize: 0x2C }
  - { offsetInCU: 0xF1C2, offset: 0x34E1A, size: 0x8, addend: 0x0, symName: __ZNSt3__18weak_ptrI5ScopeEC1IS1_EERKNS_10shared_ptrIT_EENS_9enable_ifIXsr17__compatible_withIS5_S1_EE5valueEPNS_5__natEE4typeE, symObjAddr: 0x2514, symBinAddr: 0x100017F48, symSize: 0x3C }
  - { offsetInCU: 0xF212, offset: 0x34E6A, size: 0x8, addend: 0x0, symName: __ZNSt3__16vectorINS_10shared_ptrI5ScopeEENS_9allocatorIS3_EEEC1B7v160006Ev, symObjAddr: 0x2550, symBinAddr: 0x100017F84, symSize: 0x2C }
  - { offsetInCU: 0xF23C, offset: 0x34E94, size: 0x8, addend: 0x0, symName: __ZNSt3__13mapINS_12basic_stringIcNS_11char_traitsIcEENS_9allocatorIcEEEENS_10shared_ptrI6RecordEENS_4lessIS6_EENS4_INS_4pairIKS6_S9_EEEEEC1B7v160006Ev, symObjAddr: 0x257C, symBinAddr: 0x100017FB0, symSize: 0x2C }
  - { offsetInCU: 0xF266, offset: 0x34EBE, size: 0x8, addend: 0x0, symName: __ZNSt3__123enable_shared_from_thisI5ScopeED2B7v160006Ev, symObjAddr: 0x25A8, symBinAddr: 0x100017FDC, symSize: 0x2C }
  - { offsetInCU: 0xF290, offset: 0x34EE8, size: 0x8, addend: 0x0, symName: __ZNSt3__18weak_ptrI5ScopeEC1Ev, symObjAddr: 0x25D4, symBinAddr: 0x100018008, symSize: 0x2C }
  - { offsetInCU: 0xF2BC, offset: 0x34F14, size: 0x8, addend: 0x0, symName: __ZNSt3__18weak_ptrI5ScopeEC2Ev, symObjAddr: 0x2600, symBinAddr: 0x100018034, symSize: 0x1C }
  - { offsetInCU: 0xF2E8, offset: 0x34F40, size: 0x8, addend: 0x0, symName: __ZNSt3__18weak_ptrI5ScopeEC2IS1_EERKNS_10shared_ptrIT_EENS_9enable_ifIXsr17__compatible_withIS5_S1_EE5valueEPNS_5__natEE4typeE, symObjAddr: 0x261C, symBinAddr: 0x100018050, symSize: 0x74 }
  - { offsetInCU: 0xF338, offset: 0x34F90, size: 0x8, addend: 0x0, symName: __ZNSt3__119__shared_weak_count10__add_weakB7v160006Ev, symObjAddr: 0x2690, symBinAddr: 0x1000180C4, symSize: 0x28 }
  - { offsetInCU: 0xF35E, offset: 0x34FB6, size: 0x8, addend: 0x0, symName: __ZNSt3__16vectorINS_10shared_ptrI5ScopeEENS_9allocatorIS3_EEEC2B7v160006Ev, symObjAddr: 0x26E8, symBinAddr: 0x10001811C, symSize: 0x58 }
  - { offsetInCU: 0xF388, offset: 0x34FE0, size: 0x8, addend: 0x0, symName: __ZNSt3__117__compressed_pairIPNS_10shared_ptrI5ScopeEENS_9allocatorIS3_EEEC1B7v160006IDnNS_18__default_init_tagEEEOT_OT0_, symObjAddr: 0x2740, symBinAddr: 0x100018174, symSize: 0x3C }
  - { offsetInCU: 0xF3E0, offset: 0x35038, size: 0x8, addend: 0x0, symName: __ZNSt3__117__compressed_pairIPNS_10shared_ptrI5ScopeEENS_9allocatorIS3_EEEC2B7v160006IDnNS_18__default_init_tagEEEOT_OT0_, symObjAddr: 0x278C, symBinAddr: 0x1000181C0, symSize: 0x40 }
  - { offsetInCU: 0xF438, offset: 0x35090, size: 0x8, addend: 0x0, symName: __ZNSt3__122__compressed_pair_elemIPNS_10shared_ptrI5ScopeEELi0ELb0EEC2B7v160006IDnvEEOT_, symObjAddr: 0x27CC, symBinAddr: 0x100018200, symSize: 0x1C }
  - { offsetInCU: 0xF47A, offset: 0x350D2, size: 0x8, addend: 0x0, symName: __ZNSt3__122__compressed_pair_elemINS_9allocatorINS_10shared_ptrI5ScopeEEEELi1ELb1EEC2B7v160006ENS_18__default_init_tagE, symObjAddr: 0x27E8, symBinAddr: 0x10001821C, symSize: 0x2C }
  - { offsetInCU: 0xF4AF, offset: 0x35107, size: 0x8, addend: 0x0, symName: __ZNSt3__19allocatorINS_10shared_ptrI5ScopeEEEC2B7v160006Ev, symObjAddr: 0x2814, symBinAddr: 0x100018248, symSize: 0x2C }
  - { offsetInCU: 0xF4D9, offset: 0x35131, size: 0x8, addend: 0x0, symName: __ZNSt3__116__non_trivial_ifILb1ENS_9allocatorINS_10shared_ptrI5ScopeEEEEEC2B7v160006Ev, symObjAddr: 0x2840, symBinAddr: 0x100018274, symSize: 0x14 }
  - { offsetInCU: 0xF503, offset: 0x3515B, size: 0x8, addend: 0x0, symName: __ZNSt3__13mapINS_12basic_stringIcNS_11char_traitsIcEENS_9allocatorIcEEEENS_10shared_ptrI6RecordEENS_4lessIS6_EENS4_INS_4pairIKS6_S9_EEEEEC2B7v160006Ev, symObjAddr: 0x2854, symBinAddr: 0x100018288, symSize: 0x40 }
  - { offsetInCU: 0xF52D, offset: 0x35185, size: 0x8, addend: 0x0, symName: __ZNSt3__119__map_value_compareINS_12basic_stringIcNS_11char_traitsIcEENS_9allocatorIcEEEENS_12__value_typeIS6_NS_10shared_ptrI6RecordEEEENS_4lessIS6_EELb1EEC1B7v160006ESD_, symObjAddr: 0x2894, symBinAddr: 0x1000182C8, symSize: 0x2C }
  - { offsetInCU: 0xF566, offset: 0x351BE, size: 0x8, addend: 0x0, symName: __ZNSt3__16__treeINS_12__value_typeINS_12basic_stringIcNS_11char_traitsIcEENS_9allocatorIcEEEENS_10shared_ptrI6RecordEEEENS_19__map_value_compareIS7_SB_NS_4lessIS7_EELb1EEENS5_ISB_EEEC1ERKSF_, symObjAddr: 0x28C0, symBinAddr: 0x1000182F4, symSize: 0x34 }
  - { offsetInCU: 0xF5A1, offset: 0x351F9, size: 0x8, addend: 0x0, symName: __ZNSt3__119__map_value_compareINS_12basic_stringIcNS_11char_traitsIcEENS_9allocatorIcEEEENS_12__value_typeIS6_NS_10shared_ptrI6RecordEEEENS_4lessIS6_EELb1EEC2B7v160006ESD_, symObjAddr: 0x28F4, symBinAddr: 0x100018328, symSize: 0x14 }
  - { offsetInCU: 0xF5DA, offset: 0x35232, size: 0x8, addend: 0x0, symName: __ZNSt3__16__treeINS_12__value_typeINS_12basic_stringIcNS_11char_traitsIcEENS_9allocatorIcEEEENS_10shared_ptrI6RecordEEEENS_19__map_value_compareIS7_SB_NS_4lessIS7_EELb1EEENS5_ISB_EEEC2ERKSF_, symObjAddr: 0x2908, symBinAddr: 0x10001833C, symSize: 0x7C }
  - { offsetInCU: 0xF615, offset: 0x3526D, size: 0x8, addend: 0x0, symName: __ZNSt3__117__compressed_pairINS_15__tree_end_nodeIPNS_16__tree_node_baseIPvEEEENS_9allocatorINS_11__tree_nodeINS_12__value_typeINS_12basic_stringIcNS_11char_traitsIcEENS7_IcEEEENS_10shared_ptrI6RecordEEEES3_EEEEEC1B7v160006ILb1EvEEv, symObjAddr: 0x2984, symBinAddr: 0x1000183B8, symSize: 0x2C }
  - { offsetInCU: 0xF64F, offset: 0x352A7, size: 0x8, addend: 0x0, symName: __ZNSt3__117__compressed_pairImNS_19__map_value_compareINS_12basic_stringIcNS_11char_traitsIcEENS_9allocatorIcEEEENS_12__value_typeIS7_NS_10shared_ptrI6RecordEEEENS_4lessIS7_EELb1EEEEC1B7v160006IiRKSF_EEOT_OT0_, symObjAddr: 0x29B0, symBinAddr: 0x1000183E4, symSize: 0x3C }
  - { offsetInCU: 0xF6A7, offset: 0x352FF, size: 0x8, addend: 0x0, symName: __ZNSt3__16__treeINS_12__value_typeINS_12basic_stringIcNS_11char_traitsIcEENS_9allocatorIcEEEENS_10shared_ptrI6RecordEEEENS_19__map_value_compareIS7_SB_NS_4lessIS7_EELb1EEENS5_ISB_EEE10__end_nodeB7v160006Ev, symObjAddr: 0x29EC, symBinAddr: 0x100018420, symSize: 0x2C }
  - { offsetInCU: 0xF6CD, offset: 0x35325, size: 0x8, addend: 0x0, symName: __ZNSt3__16__treeINS_12__value_typeINS_12basic_stringIcNS_11char_traitsIcEENS_9allocatorIcEEEENS_10shared_ptrI6RecordEEEENS_19__map_value_compareIS7_SB_NS_4lessIS7_EELb1EEENS5_ISB_EEE12__begin_nodeB7v160006Ev, symObjAddr: 0x2A18, symBinAddr: 0x10001844C, symSize: 0x14 }
  - { offsetInCU: 0xF6F3, offset: 0x3534B, size: 0x8, addend: 0x0, symName: __ZNSt3__117__compressed_pairINS_15__tree_end_nodeIPNS_16__tree_node_baseIPvEEEENS_9allocatorINS_11__tree_nodeINS_12__value_typeINS_12basic_stringIcNS_11char_traitsIcEENS7_IcEEEENS_10shared_ptrI6RecordEEEES3_EEEEEC2B7v160006ILb1EvEEv, symObjAddr: 0x2A2C, symBinAddr: 0x100018460, symSize: 0x34 }
  - { offsetInCU: 0xF728, offset: 0x35380, size: 0x8, addend: 0x0, symName: __ZNSt3__122__compressed_pair_elemINS_15__tree_end_nodeIPNS_16__tree_node_baseIPvEEEELi0ELb0EEC2B7v160006ENS_16__value_init_tagE, symObjAddr: 0x2A60, symBinAddr: 0x100018494, symSize: 0x2C }
  - { offsetInCU: 0xF75D, offset: 0x353B5, size: 0x8, addend: 0x0, symName: __ZNSt3__122__compressed_pair_elemINS_9allocatorINS_11__tree_nodeINS_12__value_typeINS_12basic_stringIcNS_11char_traitsIcEENS1_IcEEEENS_10shared_ptrI6RecordEEEEPvEEEELi1ELb1EEC2B7v160006ENS_16__value_init_tagE, symObjAddr: 0x2A8C, symBinAddr: 0x1000184C0, symSize: 0x2C }
  - { offsetInCU: 0xF792, offset: 0x353EA, size: 0x8, addend: 0x0, symName: __ZNSt3__115__tree_end_nodeIPNS_16__tree_node_baseIPvEEEC1B7v160006Ev, symObjAddr: 0x2AB8, symBinAddr: 0x1000184EC, symSize: 0x2C }
  - { offsetInCU: 0xF7BC, offset: 0x35414, size: 0x8, addend: 0x0, symName: __ZNSt3__115__tree_end_nodeIPNS_16__tree_node_baseIPvEEEC2B7v160006Ev, symObjAddr: 0x2AE4, symBinAddr: 0x100018518, symSize: 0x18 }
  - { offsetInCU: 0xF7E6, offset: 0x3543E, size: 0x8, addend: 0x0, symName: __ZNSt3__19allocatorINS_11__tree_nodeINS_12__value_typeINS_12basic_stringIcNS_11char_traitsIcEENS0_IcEEEENS_10shared_ptrI6RecordEEEEPvEEEC2B7v160006Ev, symObjAddr: 0x2AFC, symBinAddr: 0x100018530, symSize: 0x2C }
  - { offsetInCU: 0xF810, offset: 0x35468, size: 0x8, addend: 0x0, symName: __ZNSt3__116__non_trivial_ifILb1ENS_9allocatorINS_11__tree_nodeINS_12__value_typeINS_12basic_stringIcNS_11char_traitsIcEENS1_IcEEEENS_10shared_ptrI6RecordEEEEPvEEEEEC2B7v160006Ev, symObjAddr: 0x2B28, symBinAddr: 0x10001855C, symSize: 0x14 }
  - { offsetInCU: 0xF83A, offset: 0x35492, size: 0x8, addend: 0x0, symName: __ZNSt3__117__compressed_pairImNS_19__map_value_compareINS_12basic_stringIcNS_11char_traitsIcEENS_9allocatorIcEEEENS_12__value_typeIS7_NS_10shared_ptrI6RecordEEEENS_4lessIS7_EELb1EEEEC2B7v160006IiRKSF_EEOT_OT0_, symObjAddr: 0x2B3C, symBinAddr: 0x100018570, symSize: 0x44 }
  - { offsetInCU: 0xF892, offset: 0x354EA, size: 0x8, addend: 0x0, symName: __ZNSt3__122__compressed_pair_elemINS_19__map_value_compareINS_12basic_stringIcNS_11char_traitsIcEENS_9allocatorIcEEEENS_12__value_typeIS7_NS_10shared_ptrI6RecordEEEENS_4lessIS7_EELb1EEELi1ELb1EEC2B7v160006IRKSF_vEEOT_, symObjAddr: 0x2BA4, symBinAddr: 0x1000185B4, symSize: 0x18 }
  - { offsetInCU: 0xF8D4, offset: 0x3552C, size: 0x8, addend: 0x0, symName: __ZNSt3__114pointer_traitsIPNS_15__tree_end_nodeIPNS_16__tree_node_baseIPvEEEEE10pointer_toB7v160006ERS6_, symObjAddr: 0x2BBC, symBinAddr: 0x1000185CC, symSize: 0x14 }
  - { offsetInCU: 0xF8F7, offset: 0x3554F, size: 0x8, addend: 0x0, symName: __ZNSt3__117__compressed_pairINS_15__tree_end_nodeIPNS_16__tree_node_baseIPvEEEENS_9allocatorINS_11__tree_nodeINS_12__value_typeINS_12basic_stringIcNS_11char_traitsIcEENS7_IcEEEENS_10shared_ptrI6RecordEEEES3_EEEEE5firstB7v160006Ev, symObjAddr: 0x2BD0, symBinAddr: 0x1000185E0, symSize: 0x24 }
  - { offsetInCU: 0xF91D, offset: 0x35575, size: 0x8, addend: 0x0, symName: __ZNSt3__122__compressed_pair_elemINS_15__tree_end_nodeIPNS_16__tree_node_baseIPvEEEELi0ELb0EE5__getB7v160006Ev, symObjAddr: 0x2BF4, symBinAddr: 0x100018604, symSize: 0x14 }
  - { offsetInCU: 0xF943, offset: 0x3559B, size: 0x8, addend: 0x0, symName: __ZNSt3__18weak_ptrI5ScopeED1Ev, symObjAddr: 0x2C08, symBinAddr: 0x100018618, symSize: 0x2C }
  - { offsetInCU: 0xF96F, offset: 0x355C7, size: 0x8, addend: 0x0, symName: __ZNSt3__18weak_ptrI5ScopeED2Ev, symObjAddr: 0x2C34, symBinAddr: 0x100018644, symSize: 0x54 }
  - { offsetInCU: 0xF99B, offset: 0x355F3, size: 0x8, addend: 0x0, symName: __ZNSt3__110shared_ptrI5ScopeED2B7v160006Ev, symObjAddr: 0x2C88, symBinAddr: 0x100018698, symSize: 0x54 }
  - { offsetInCU: 0xF9C5, offset: 0x3561D, size: 0x8, addend: 0x0, symName: __ZNSt3__119__shared_weak_count16__release_sharedB7v160006Ev, symObjAddr: 0x2CDC, symBinAddr: 0x1000186EC, symSize: 0x3C }
  - { offsetInCU: 0xF9EB, offset: 0x35643, size: 0x8, addend: 0x0, symName: __ZNSt3__114__shared_count16__release_sharedB7v160006Ev, symObjAddr: 0x2D18, symBinAddr: 0x100018728, symSize: 0x7C }
  - { offsetInCU: 0xFA11, offset: 0x35669, size: 0x8, addend: 0x0, symName: __ZNSt3__120__shared_ptr_emplaceI5ScopeNS_9allocatorIS1_EEE8_StorageD2B7v160006Ev, symObjAddr: 0x2DC4, symBinAddr: 0x1000187D4, symSize: 0x2C }
  - { offsetInCU: 0xFA3B, offset: 0x35693, size: 0x8, addend: 0x0, symName: __ZNSt3__120__shared_ptr_emplaceI5ScopeNS_9allocatorIS1_EEED2Ev, symObjAddr: 0x2DF0, symBinAddr: 0x100018800, symSize: 0x48 }
  - { offsetInCU: 0xFA68, offset: 0x356C0, size: 0x8, addend: 0x0, symName: __ZN5ScopeD1Ev, symObjAddr: 0x2E38, symBinAddr: 0x100018848, symSize: 0x2C }
  - { offsetInCU: 0xFA94, offset: 0x356EC, size: 0x8, addend: 0x0, symName: __ZN5ScopeD2Ev, symObjAddr: 0x2E64, symBinAddr: 0x100018874, symSize: 0x68 }
  - { offsetInCU: 0xFAC0, offset: 0x35718, size: 0x8, addend: 0x0, symName: __ZNSt3__13mapINS_12basic_stringIcNS_11char_traitsIcEENS_9allocatorIcEEEENS_10shared_ptrI6RecordEENS_4lessIS6_EENS4_INS_4pairIKS6_S9_EEEEED1B7v160006Ev, symObjAddr: 0x2ECC, symBinAddr: 0x1000188DC, symSize: 0x2C }
  - { offsetInCU: 0xFAEA, offset: 0x35742, size: 0x8, addend: 0x0, symName: __ZNSt3__16vectorINS_10shared_ptrI5ScopeEENS_9allocatorIS3_EEED1B7v160006Ev, symObjAddr: 0x2EF8, symBinAddr: 0x100018908, symSize: 0x2C }
  - { offsetInCU: 0xFB14, offset: 0x3576C, size: 0x8, addend: 0x0, symName: __ZNSt3__13mapINS_12basic_stringIcNS_11char_traitsIcEENS_9allocatorIcEEEENS_10shared_ptrI6RecordEENS_4lessIS6_EENS4_INS_4pairIKS6_S9_EEEEED2B7v160006Ev, symObjAddr: 0x2F24, symBinAddr: 0x100018934, symSize: 0x2C }
  - { offsetInCU: 0xFB3E, offset: 0x35796, size: 0x8, addend: 0x0, symName: __ZNSt3__16__treeINS_12__value_typeINS_12basic_stringIcNS_11char_traitsIcEENS_9allocatorIcEEEENS_10shared_ptrI6RecordEEEENS_19__map_value_compareIS7_SB_NS_4lessIS7_EELb1EEENS5_ISB_EEED1Ev, symObjAddr: 0x2F50, symBinAddr: 0x100018960, symSize: 0x2C }
  - { offsetInCU: 0xFB6A, offset: 0x357C2, size: 0x8, addend: 0x0, symName: __ZNSt3__16__treeINS_12__value_typeINS_12basic_stringIcNS_11char_traitsIcEENS_9allocatorIcEEEENS_10shared_ptrI6RecordEEEENS_19__map_value_compareIS7_SB_NS_4lessIS7_EELb1EEENS5_ISB_EEED2Ev, symObjAddr: 0x2F7C, symBinAddr: 0x10001898C, symSize: 0x38 }
  - { offsetInCU: 0xFB96, offset: 0x357EE, size: 0x8, addend: 0x0, symName: __ZNSt3__16__treeINS_12__value_typeINS_12basic_stringIcNS_11char_traitsIcEENS_9allocatorIcEEEENS_10shared_ptrI6RecordEEEENS_19__map_value_compareIS7_SB_NS_4lessIS7_EELb1EEENS5_ISB_EEE7destroyEPNS_11__tree_nodeISB_PvEE, symObjAddr: 0x2FB4, symBinAddr: 0x1000189C4, symSize: 0xAC }
  - { offsetInCU: 0xFBE3, offset: 0x3583B, size: 0x8, addend: 0x0, symName: __ZNKSt3__16__treeINS_12__value_typeINS_12basic_stringIcNS_11char_traitsIcEENS_9allocatorIcEEEENS_10shared_ptrI6RecordEEEENS_19__map_value_compareIS7_SB_NS_4lessIS7_EELb1EEENS5_ISB_EEE6__rootB7v160006Ev, symObjAddr: 0x3060, symBinAddr: 0x100018A70, symSize: 0x28 }
  - { offsetInCU: 0xFC09, offset: 0x35861, size: 0x8, addend: 0x0, symName: __ZNSt3__16__treeINS_12__value_typeINS_12basic_stringIcNS_11char_traitsIcEENS_9allocatorIcEEEENS_10shared_ptrI6RecordEEEENS_19__map_value_compareIS7_SB_NS_4lessIS7_EELb1EEENS5_ISB_EEE12__node_allocB7v160006Ev, symObjAddr: 0x3088, symBinAddr: 0x100018A98, symSize: 0x28 }
  - { offsetInCU: 0xFC2F, offset: 0x35887, size: 0x8, addend: 0x0, symName: __ZNSt3__116allocator_traitsINS_9allocatorINS_11__tree_nodeINS_12__value_typeINS_12basic_stringIcNS_11char_traitsIcEENS1_IcEEEENS_10shared_ptrI6RecordEEEEPvEEEEE7destroyB7v160006INS_4pairIKS8_SB_EEvvEEvRSF_PT_, symObjAddr: 0x30B0, symBinAddr: 0x100018AC0, symSize: 0x28 }
  - { offsetInCU: 0xFC6A, offset: 0x358C2, size: 0x8, addend: 0x0, symName: __ZNSt3__122__tree_key_value_typesINS_12__value_typeINS_12basic_stringIcNS_11char_traitsIcEENS_9allocatorIcEEEENS_10shared_ptrI6RecordEEEEE9__get_ptrB7v160006ERSB_, symObjAddr: 0x30D8, symBinAddr: 0x100018AE8, symSize: 0x24 }
  - { offsetInCU: 0xFC8E, offset: 0x358E6, size: 0x8, addend: 0x0, symName: __ZNSt3__116allocator_traitsINS_9allocatorINS_11__tree_nodeINS_12__value_typeINS_12basic_stringIcNS_11char_traitsIcEENS1_IcEEEENS_10shared_ptrI6RecordEEEEPvEEEEE10deallocateB7v160006ERSF_PSE_m, symObjAddr: 0x30FC, symBinAddr: 0x100018B0C, symSize: 0x34 }
  - { offsetInCU: 0xFCD0, offset: 0x35928, size: 0x8, addend: 0x0, symName: __ZNSt3__117__compressed_pairINS_15__tree_end_nodeIPNS_16__tree_node_baseIPvEEEENS_9allocatorINS_11__tree_nodeINS_12__value_typeINS_12basic_stringIcNS_11char_traitsIcEENS7_IcEEEENS_10shared_ptrI6RecordEEEES3_EEEEE6secondB7v160006Ev, symObjAddr: 0x3130, symBinAddr: 0x100018B40, symSize: 0x24 }
  - { offsetInCU: 0xFCF6, offset: 0x3594E, size: 0x8, addend: 0x0, symName: __ZNSt3__122__compressed_pair_elemINS_9allocatorINS_11__tree_nodeINS_12__value_typeINS_12basic_stringIcNS_11char_traitsIcEENS1_IcEEEENS_10shared_ptrI6RecordEEEEPvEEEELi1ELb1EE5__getB7v160006Ev, symObjAddr: 0x3154, symBinAddr: 0x100018B64, symSize: 0x14 }
  - { offsetInCU: 0xFD1C, offset: 0x35974, size: 0x8, addend: 0x0, symName: __ZNSt3__14pairIKNS_12basic_stringIcNS_11char_traitsIcEENS_9allocatorIcEEEENS_10shared_ptrI6RecordEEED1Ev, symObjAddr: 0x3168, symBinAddr: 0x100018B78, symSize: 0x2C }
  - { offsetInCU: 0xFD48, offset: 0x359A0, size: 0x8, addend: 0x0, symName: __ZNSt3__14pairIKNS_12basic_stringIcNS_11char_traitsIcEENS_9allocatorIcEEEENS_10shared_ptrI6RecordEEED2Ev, symObjAddr: 0x3194, symBinAddr: 0x100018BA4, symSize: 0x38 }
  - { offsetInCU: 0xFD74, offset: 0x359CC, size: 0x8, addend: 0x0, symName: __ZNSt3__110shared_ptrI6RecordED1B7v160006Ev, symObjAddr: 0x31CC, symBinAddr: 0x100018BDC, symSize: 0x2C }
  - { offsetInCU: 0xFD9E, offset: 0x359F6, size: 0x8, addend: 0x0, symName: __ZNSt3__110shared_ptrI6RecordED2B7v160006Ev, symObjAddr: 0x31F8, symBinAddr: 0x100018C08, symSize: 0x54 }
  - { offsetInCU: 0xFDC8, offset: 0x35A20, size: 0x8, addend: 0x0, symName: __ZNSt3__112__value_typeINS_12basic_stringIcNS_11char_traitsIcEENS_9allocatorIcEEEENS_10shared_ptrI6RecordEEE11__get_valueB7v160006Ev, symObjAddr: 0x324C, symBinAddr: 0x100018C5C, symSize: 0x14 }
  - { offsetInCU: 0xFDEE, offset: 0x35A46, size: 0x8, addend: 0x0, symName: __ZNSt3__19allocatorINS_11__tree_nodeINS_12__value_typeINS_12basic_stringIcNS_11char_traitsIcEENS0_IcEEEENS_10shared_ptrI6RecordEEEEPvEEE10deallocateB7v160006EPSD_m, symObjAddr: 0x3260, symBinAddr: 0x100018C70, symSize: 0x44 }
  - { offsetInCU: 0xFE30, offset: 0x35A88, size: 0x8, addend: 0x0, symName: __ZNKSt3__16__treeINS_12__value_typeINS_12basic_stringIcNS_11char_traitsIcEENS_9allocatorIcEEEENS_10shared_ptrI6RecordEEEENS_19__map_value_compareIS7_SB_NS_4lessIS7_EELb1EEENS5_ISB_EEE10__end_nodeB7v160006Ev, symObjAddr: 0x3320, symBinAddr: 0x100018CB4, symSize: 0x2C }
  - { offsetInCU: 0xFE56, offset: 0x35AAE, size: 0x8, addend: 0x0, symName: __ZNKSt3__117__compressed_pairINS_15__tree_end_nodeIPNS_16__tree_node_baseIPvEEEENS_9allocatorINS_11__tree_nodeINS_12__value_typeINS_12basic_stringIcNS_11char_traitsIcEENS7_IcEEEENS_10shared_ptrI6RecordEEEES3_EEEEE5firstB7v160006Ev, symObjAddr: 0x334C, symBinAddr: 0x100018CE0, symSize: 0x24 }
  - { offsetInCU: 0xFE7C, offset: 0x35AD4, size: 0x8, addend: 0x0, symName: __ZNKSt3__122__compressed_pair_elemINS_15__tree_end_nodeIPNS_16__tree_node_baseIPvEEEELi0ELb0EE5__getB7v160006Ev, symObjAddr: 0x3370, symBinAddr: 0x100018D04, symSize: 0x14 }
  - { offsetInCU: 0xFEA2, offset: 0x35AFA, size: 0x8, addend: 0x0, symName: __ZNSt3__16vectorINS_10shared_ptrI5ScopeEENS_9allocatorIS3_EEED2B7v160006Ev, symObjAddr: 0x3384, symBinAddr: 0x100018D18, symSize: 0x44 }
  - { offsetInCU: 0xFECC, offset: 0x35B24, size: 0x8, addend: 0x0, symName: __ZNSt3__16vectorINS_10shared_ptrI5ScopeEENS_9allocatorIS3_EEE16__destroy_vectorC1ERS6_, symObjAddr: 0x33C8, symBinAddr: 0x100018D5C, symSize: 0x34 }
  - { offsetInCU: 0xFF05, offset: 0x35B5D, size: 0x8, addend: 0x0, symName: __ZNSt3__16vectorINS_10shared_ptrI5ScopeEENS_9allocatorIS3_EEE16__destroy_vectorclB7v160006Ev, symObjAddr: 0x33FC, symBinAddr: 0x100018D90, symSize: 0x9C }
  - { offsetInCU: 0xFF2B, offset: 0x35B83, size: 0x8, addend: 0x0, symName: __ZNSt3__16vectorINS_10shared_ptrI5ScopeEENS_9allocatorIS3_EEE16__destroy_vectorC2ERS6_, symObjAddr: 0x3498, symBinAddr: 0x100018E2C, symSize: 0x20 }
  - { offsetInCU: 0xFF64, offset: 0x35BBC, size: 0x8, addend: 0x0, symName: __ZNKSt3__16vectorINS_10shared_ptrI5ScopeEENS_9allocatorIS3_EEE17__annotate_deleteB7v160006Ev, symObjAddr: 0x34B8, symBinAddr: 0x100018E4C, symSize: 0xB8 }
  - { offsetInCU: 0xFF8A, offset: 0x35BE2, size: 0x8, addend: 0x0, symName: __ZNSt3__16vectorINS_10shared_ptrI5ScopeEENS_9allocatorIS3_EEE7__clearB7v160006Ev, symObjAddr: 0x3580, symBinAddr: 0x100018F14, symSize: 0x28 }
  - { offsetInCU: 0xFFB0, offset: 0x35C08, size: 0x8, addend: 0x0, symName: __ZNSt3__116allocator_traitsINS_9allocatorINS_10shared_ptrI5ScopeEEEEE10deallocateB7v160006ERS5_PS4_m, symObjAddr: 0x35A8, symBinAddr: 0x100018F3C, symSize: 0x34 }
  - { offsetInCU: 0xFFF2, offset: 0x35C4A, size: 0x8, addend: 0x0, symName: __ZNSt3__16vectorINS_10shared_ptrI5ScopeEENS_9allocatorIS3_EEE7__allocB7v160006Ev, symObjAddr: 0x35DC, symBinAddr: 0x100018F70, symSize: 0x28 }
  - { offsetInCU: 0x10018, offset: 0x35C70, size: 0x8, addend: 0x0, symName: __ZNKSt3__16vectorINS_10shared_ptrI5ScopeEENS_9allocatorIS3_EEE8capacityB7v160006Ev, symObjAddr: 0x3604, symBinAddr: 0x100018F98, symSize: 0x40 }
  - { offsetInCU: 0x1003E, offset: 0x35C96, size: 0x8, addend: 0x0, symName: __ZNKSt3__16vectorINS_10shared_ptrI5ScopeEENS_9allocatorIS3_EEE31__annotate_contiguous_containerB7v160006EPKvS8_S8_S8_, symObjAddr: 0x3644, symBinAddr: 0x100018FD8, symSize: 0x20 }
  - { offsetInCU: 0x10094, offset: 0x35CEC, size: 0x8, addend: 0x0, symName: __ZNKSt3__16vectorINS_10shared_ptrI5ScopeEENS_9allocatorIS3_EEE4dataB7v160006Ev, symObjAddr: 0x3664, symBinAddr: 0x100018FF8, symSize: 0x28 }
  - { offsetInCU: 0x100BA, offset: 0x35D12, size: 0x8, addend: 0x0, symName: __ZNKSt3__16vectorINS_10shared_ptrI5ScopeEENS_9allocatorIS3_EEE4sizeB7v160006Ev, symObjAddr: 0x368C, symBinAddr: 0x100019020, symSize: 0x28 }
  - { offsetInCU: 0x100E0, offset: 0x35D38, size: 0x8, addend: 0x0, symName: __ZNSt3__16vectorINS_10shared_ptrI5ScopeEENS_9allocatorIS3_EEE22__base_destruct_at_endB7v160006EPS3_, symObjAddr: 0x36C8, symBinAddr: 0x10001905C, symSize: 0x8C }
  - { offsetInCU: 0x10124, offset: 0x35D7C, size: 0x8, addend: 0x0, symName: __ZNSt3__116allocator_traitsINS_9allocatorINS_10shared_ptrI5ScopeEEEEE7destroyB7v160006IS4_vEEvRS5_PT_, symObjAddr: 0x3754, symBinAddr: 0x1000190E8, symSize: 0x2C }
  - { offsetInCU: 0x10161, offset: 0x35DB9, size: 0x8, addend: 0x0, symName: __ZNSt3__19allocatorINS_10shared_ptrI5ScopeEEE7destroyB7v160006EPS3_, symObjAddr: 0x3780, symBinAddr: 0x100019114, symSize: 0x28 }
  - { offsetInCU: 0x10195, offset: 0x35DED, size: 0x8, addend: 0x0, symName: __ZNSt3__19allocatorINS_10shared_ptrI5ScopeEEE10deallocateB7v160006EPS3_m, symObjAddr: 0x37A8, symBinAddr: 0x10001913C, symSize: 0x40 }
  - { offsetInCU: 0x101D7, offset: 0x35E2F, size: 0x8, addend: 0x0, symName: __ZNSt3__117__compressed_pairIPNS_10shared_ptrI5ScopeEENS_9allocatorIS3_EEE6secondB7v160006Ev, symObjAddr: 0x37E8, symBinAddr: 0x10001917C, symSize: 0x24 }
  - { offsetInCU: 0x101FD, offset: 0x35E55, size: 0x8, addend: 0x0, symName: __ZNSt3__122__compressed_pair_elemINS_9allocatorINS_10shared_ptrI5ScopeEEEELi1ELb1EE5__getB7v160006Ev, symObjAddr: 0x380C, symBinAddr: 0x1000191A0, symSize: 0x14 }
  - { offsetInCU: 0x10223, offset: 0x35E7B, size: 0x8, addend: 0x0, symName: __ZNKSt3__16vectorINS_10shared_ptrI5ScopeEENS_9allocatorIS3_EEE9__end_capB7v160006Ev, symObjAddr: 0x3820, symBinAddr: 0x1000191B4, symSize: 0x28 }
  - { offsetInCU: 0x10249, offset: 0x35EA1, size: 0x8, addend: 0x0, symName: __ZNKSt3__117__compressed_pairIPNS_10shared_ptrI5ScopeEENS_9allocatorIS3_EEE5firstB7v160006Ev, symObjAddr: 0x3848, symBinAddr: 0x1000191DC, symSize: 0x24 }
  - { offsetInCU: 0x1026F, offset: 0x35EC7, size: 0x8, addend: 0x0, symName: __ZNKSt3__122__compressed_pair_elemIPNS_10shared_ptrI5ScopeEELi0ELb0EE5__getB7v160006Ev, symObjAddr: 0x386C, symBinAddr: 0x100019200, symSize: 0x14 }
  - { offsetInCU: 0x10295, offset: 0x35EED, size: 0x8, addend: 0x0, symName: __ZNSt3__120__shared_ptr_emplaceI5ScopeNS_9allocatorIS1_EEE11__get_allocB7v160006Ev, symObjAddr: 0x3880, symBinAddr: 0x100019214, symSize: 0x28 }
  - { offsetInCU: 0x102BB, offset: 0x35F13, size: 0x8, addend: 0x0, symName: __ZNSt3__116allocator_traitsINS_9allocatorINS_20__shared_ptr_emplaceI5ScopeNS1_IS3_EEEEEEE10deallocateB7v160006ERS6_PS5_m, symObjAddr: 0x38A8, symBinAddr: 0x10001923C, symSize: 0x34 }
  - { offsetInCU: 0x102FD, offset: 0x35F55, size: 0x8, addend: 0x0, symName: __ZNSt3__114pointer_traitsIPNS_20__shared_ptr_emplaceI5ScopeNS_9allocatorIS2_EEEEE10pointer_toB7v160006ERS5_, symObjAddr: 0x38DC, symBinAddr: 0x100019270, symSize: 0x14 }
  - { offsetInCU: 0x10320, offset: 0x35F78, size: 0x8, addend: 0x0, symName: __ZNSt3__19allocatorINS_20__shared_ptr_emplaceI5ScopeNS0_IS2_EEEEE10deallocateB7v160006EPS4_m, symObjAddr: 0x38F0, symBinAddr: 0x100019284, symSize: 0x44 }
  - { offsetInCU: 0x10362, offset: 0x35FBA, size: 0x8, addend: 0x0, symName: __ZNSt3__110shared_ptrI5ScopeEC1B7v160006Ev, symObjAddr: 0x3934, symBinAddr: 0x1000192C8, symSize: 0x2C }
  - { offsetInCU: 0x1038C, offset: 0x35FE4, size: 0x8, addend: 0x0, symName: __ZNSt3__110shared_ptrI5ScopeEC2B7v160006Ev, symObjAddr: 0x39DC, symBinAddr: 0x100019370, symSize: 0x1C }
  - { offsetInCU: 0x103B6, offset: 0x3600E, size: 0x8, addend: 0x0, symName: __ZNKSt3__18weak_ptrI5ScopeE7expiredB7v160006Ev, symObjAddr: 0x39F8, symBinAddr: 0x10001938C, symSize: 0x64 }
  - { offsetInCU: 0x103DC, offset: 0x36034, size: 0x8, addend: 0x0, symName: __ZNSt3__110shared_ptrI5ScopeEC1B7v160006IS1_EERKNS0_IT_EEPS1_, symObjAddr: 0x3A5C, symBinAddr: 0x1000193F0, symSize: 0x3C }
  - { offsetInCU: 0x1042D, offset: 0x36085, size: 0x8, addend: 0x0, symName: __ZNSt3__18weak_ptrI5ScopeEaSIS1_EENS_9enable_ifIXsr17__compatible_withIT_S1_EE5valueERS2_E4typeERKNS_10shared_ptrIS5_EE, symObjAddr: 0x3A98, symBinAddr: 0x10001942C, symSize: 0x54 }
  - { offsetInCU: 0x1046D, offset: 0x360C5, size: 0x8, addend: 0x0, symName: __ZNKSt3__119__shared_weak_count9use_countB7v160006Ev, symObjAddr: 0x3AEC, symBinAddr: 0x100019480, symSize: 0x24 }
  - { offsetInCU: 0x10493, offset: 0x360EB, size: 0x8, addend: 0x0, symName: __ZNKSt3__114__shared_count9use_countB7v160006Ev, symObjAddr: 0x3B10, symBinAddr: 0x1000194A4, symSize: 0x3C }
  - { offsetInCU: 0x104B9, offset: 0x36111, size: 0x8, addend: 0x0, symName: __ZNSt3__110shared_ptrI5ScopeEC2B7v160006IS1_EERKNS0_IT_EEPS1_, symObjAddr: 0x3B6C, symBinAddr: 0x100019500, symSize: 0x70 }
  - { offsetInCU: 0x1050A, offset: 0x36162, size: 0x8, addend: 0x0, symName: __ZNSt3__119__shared_weak_count12__add_sharedB7v160006Ev, symObjAddr: 0x3BDC, symBinAddr: 0x100019570, symSize: 0x24 }
  - { offsetInCU: 0x10530, offset: 0x36188, size: 0x8, addend: 0x0, symName: __ZNSt3__114__shared_count12__add_sharedB7v160006Ev, symObjAddr: 0x3C00, symBinAddr: 0x100019594, symSize: 0x28 }
  - { offsetInCU: 0x10556, offset: 0x361AE, size: 0x8, addend: 0x0, symName: __ZNSt3__18weak_ptrI5ScopeE4swapERS2_, symObjAddr: 0x3C28, symBinAddr: 0x1000195BC, symSize: 0x44 }
  - { offsetInCU: 0x1058D, offset: 0x361E5, size: 0x8, addend: 0x0, symName: __ZNSt3__120__shared_ptr_emplaceI5ScopeNS_9allocatorIS1_EEE8_Storage10__get_elemEv, symObjAddr: 0x3CE4, symBinAddr: 0x100019678, symSize: 0x3C }
  - { offsetInCU: 0x105E0, offset: 0x36238, size: 0x8, addend: 0x0, symName: __ZNSt3__117__compressed_pairINS_9allocatorI5ScopeEES2_E17__get_second_baseB7v160006EPS4_, symObjAddr: 0x3D20, symBinAddr: 0x1000196B4, symSize: 0x14 }
  - { offsetInCU: 0x10603, offset: 0x3625B, size: 0x8, addend: 0x0, symName: __ZNSt3__118__allocation_guardINS_9allocatorINS_20__shared_ptr_emplaceI5ScopeNS1_IS3_EEEEEEED2B7v160006Ev, symObjAddr: 0x3D34, symBinAddr: 0x1000196C8, symSize: 0x58 }
  - { offsetInCU: 0x1062D, offset: 0x36285, size: 0x8, addend: 0x0, symName: __ZNSt3__19allocatorI5ScopeEC2B7v160006Ev, symObjAddr: 0x3D8C, symBinAddr: 0x100019720, symSize: 0x2C }
  - { offsetInCU: 0x10657, offset: 0x362AF, size: 0x8, addend: 0x0, symName: __ZNSt3__116__non_trivial_ifILb1ENS_9allocatorI5ScopeEEEC2B7v160006Ev, symObjAddr: 0x3DB8, symBinAddr: 0x10001974C, symSize: 0x14 }
  - { offsetInCU: 0x10681, offset: 0x362D9, size: 0x8, addend: 0x0, symName: __ZNSt3__110shared_ptrI5ScopeEC2B7v160006ERKS2_, symObjAddr: 0x3DCC, symBinAddr: 0x100019760, symSize: 0x70 }
  - { offsetInCU: 0x106BA, offset: 0x36312, size: 0x8, addend: 0x0, symName: __ZNKSt3__110shared_ptrI5ScopeEcvbB7v160006Ev, symObjAddr: 0x3F04, symBinAddr: 0x1000197D0, symSize: 0x30 }
  - { offsetInCU: 0x106E0, offset: 0x36338, size: 0x8, addend: 0x0, symName: __ZNKSt3__110shared_ptrI5ScopeEptB7v160006Ev, symObjAddr: 0x3F34, symBinAddr: 0x100019800, symSize: 0x18 }
  - { offsetInCU: 0x10706, offset: 0x3635E, size: 0x8, addend: 0x0, symName: __ZNK5Scope14printScopeTreeERKNSt3__112basic_stringIcNS0_11char_traitsIcEENS0_9allocatorIcEEEE, symObjAddr: 0x3F4C, symBinAddr: 0x100019818, symSize: 0x220 }
  - { offsetInCU: 0x107CC, offset: 0x36424, size: 0x8, addend: 0x0, symName: __ZNKSt3__110shared_ptrI5ScopeE3getB7v160006Ev, symObjAddr: 0x416C, symBinAddr: 0x100019A38, symSize: 0x18 }
  - { offsetInCU: 0x107F2, offset: 0x3644A, size: 0x8, addend: 0x0, symName: __ZNKSt3__13mapINS_12basic_stringIcNS_11char_traitsIcEENS_9allocatorIcEEEENS_10shared_ptrI6RecordEENS_4lessIS6_EENS4_INS_4pairIKS6_S9_EEEEE5beginB7v160006Ev, symObjAddr: 0x4184, symBinAddr: 0x100019A50, symSize: 0x38 }
  - { offsetInCU: 0x10818, offset: 0x36470, size: 0x8, addend: 0x0, symName: __ZNKSt3__13mapINS_12basic_stringIcNS_11char_traitsIcEENS_9allocatorIcEEEENS_10shared_ptrI6RecordEENS_4lessIS6_EENS4_INS_4pairIKS6_S9_EEEEE3endB7v160006Ev, symObjAddr: 0x41BC, symBinAddr: 0x100019A88, symSize: 0x38 }
  - { offsetInCU: 0x1083E, offset: 0x36496, size: 0x8, addend: 0x0, symName: __ZNKSt3__120__map_const_iteratorINS_21__tree_const_iteratorINS_12__value_typeINS_12basic_stringIcNS_11char_traitsIcEENS_9allocatorIcEEEENS_10shared_ptrI6RecordEEEEPNS_11__tree_nodeISC_PvEElEEEdeB7v160006Ev, symObjAddr: 0x4224, symBinAddr: 0x100019AF0, symSize: 0x28 }
  - { offsetInCU: 0x10864, offset: 0x364BC, size: 0x8, addend: 0x0, symName: __ZNKSt3__110shared_ptrI6RecordEptB7v160006Ev, symObjAddr: 0x424C, symBinAddr: 0x100019B18, symSize: 0x18 }
  - { offsetInCU: 0x1088A, offset: 0x364E2, size: 0x8, addend: 0x0, symName: __ZNK6Record7getTypeEv, symObjAddr: 0x4264, symBinAddr: 0x100019B30, symSize: 0x3C }
  - { offsetInCU: 0x108B0, offset: 0x36508, size: 0x8, addend: 0x0, symName: __ZNSt3__120__map_const_iteratorINS_21__tree_const_iteratorINS_12__value_typeINS_12basic_stringIcNS_11char_traitsIcEENS_9allocatorIcEEEENS_10shared_ptrI6RecordEEEEPNS_11__tree_nodeISC_PvEElEEEppB7v160006Ev, symObjAddr: 0x42A0, symBinAddr: 0x100019B6C, symSize: 0x2C }
  - { offsetInCU: 0x108D6, offset: 0x3652E, size: 0x8, addend: 0x0, symName: __ZNKSt3__16vectorINS_10shared_ptrI5ScopeEENS_9allocatorIS3_EEE5beginB7v160006Ev, symObjAddr: 0x42CC, symBinAddr: 0x100019B98, symSize: 0x30 }
  - { offsetInCU: 0x108FE, offset: 0x36556, size: 0x8, addend: 0x0, symName: __ZNKSt3__16vectorINS_10shared_ptrI5ScopeEENS_9allocatorIS3_EEE3endB7v160006Ev, symObjAddr: 0x42FC, symBinAddr: 0x100019BC8, symSize: 0x30 }
  - { offsetInCU: 0x10926, offset: 0x3657E, size: 0x8, addend: 0x0, symName: __ZNKSt3__111__wrap_iterIPKNS_10shared_ptrI5ScopeEEEdeB7v160006Ev, symObjAddr: 0x4360, symBinAddr: 0x100019C2C, symSize: 0x18 }
  - { offsetInCU: 0x1094C, offset: 0x365A4, size: 0x8, addend: 0x0, symName: __ZNSt3__111__wrap_iterIPKNS_10shared_ptrI5ScopeEEEppB7v160006Ev, symObjAddr: 0x4494, symBinAddr: 0x100019D60, symSize: 0x20 }
  - { offsetInCU: 0x10972, offset: 0x365CA, size: 0x8, addend: 0x0, symName: __ZNKSt3__16__treeINS_12__value_typeINS_12basic_stringIcNS_11char_traitsIcEENS_9allocatorIcEEEENS_10shared_ptrI6RecordEEEENS_19__map_value_compareIS7_SB_NS_4lessIS7_EELb1EEENS5_ISB_EEE5beginB7v160006Ev, symObjAddr: 0x44B4, symBinAddr: 0x100019D80, symSize: 0x34 }
  - { offsetInCU: 0x10998, offset: 0x365F0, size: 0x8, addend: 0x0, symName: __ZNSt3__120__map_const_iteratorINS_21__tree_const_iteratorINS_12__value_typeINS_12basic_stringIcNS_11char_traitsIcEENS_9allocatorIcEEEENS_10shared_ptrI6RecordEEEEPNS_11__tree_nodeISC_PvEElEEEC1B7v160006ESH_, symObjAddr: 0x44E8, symBinAddr: 0x100019DB4, symSize: 0x34 }
  - { offsetInCU: 0x109D1, offset: 0x36629, size: 0x8, addend: 0x0, symName: __ZNKSt3__16__treeINS_12__value_typeINS_12basic_stringIcNS_11char_traitsIcEENS_9allocatorIcEEEENS_10shared_ptrI6RecordEEEENS_19__map_value_compareIS7_SB_NS_4lessIS7_EELb1EEENS5_ISB_EEE12__begin_nodeB7v160006Ev, symObjAddr: 0x451C, symBinAddr: 0x100019DE8, symSize: 0x14 }
  - { offsetInCU: 0x109F7, offset: 0x3664F, size: 0x8, addend: 0x0, symName: __ZNSt3__121__tree_const_iteratorINS_12__value_typeINS_12basic_stringIcNS_11char_traitsIcEENS_9allocatorIcEEEENS_10shared_ptrI6RecordEEEEPNS_11__tree_nodeISB_PvEElEC1B7v160006EPNS_15__tree_end_nodeIPNS_16__tree_node_baseISD_EEEE, symObjAddr: 0x4530, symBinAddr: 0x100019DFC, symSize: 0x34 }
  - { offsetInCU: 0x10A30, offset: 0x36688, size: 0x8, addend: 0x0, symName: __ZNSt3__121__tree_const_iteratorINS_12__value_typeINS_12basic_stringIcNS_11char_traitsIcEENS_9allocatorIcEEEENS_10shared_ptrI6RecordEEEEPNS_11__tree_nodeISB_PvEElEC2B7v160006EPNS_15__tree_end_nodeIPNS_16__tree_node_baseISD_EEEE, symObjAddr: 0x4564, symBinAddr: 0x100019E30, symSize: 0x20 }
  - { offsetInCU: 0x10A69, offset: 0x366C1, size: 0x8, addend: 0x0, symName: __ZNSt3__120__map_const_iteratorINS_21__tree_const_iteratorINS_12__value_typeINS_12basic_stringIcNS_11char_traitsIcEENS_9allocatorIcEEEENS_10shared_ptrI6RecordEEEEPNS_11__tree_nodeISC_PvEElEEEC2B7v160006ESH_, symObjAddr: 0x4584, symBinAddr: 0x100019E50, symSize: 0x20 }
  - { offsetInCU: 0x10AA2, offset: 0x366FA, size: 0x8, addend: 0x0, symName: __ZNKSt3__16__treeINS_12__value_typeINS_12basic_stringIcNS_11char_traitsIcEENS_9allocatorIcEEEENS_10shared_ptrI6RecordEEEENS_19__map_value_compareIS7_SB_NS_4lessIS7_EELb1EEENS5_ISB_EEE3endB7v160006Ev, symObjAddr: 0x45A4, symBinAddr: 0x100019E70, symSize: 0x34 }
  - { offsetInCU: 0x10AC8, offset: 0x36720, size: 0x8, addend: 0x0, symName: __ZNKSt3__121__tree_const_iteratorINS_12__value_typeINS_12basic_stringIcNS_11char_traitsIcEENS_9allocatorIcEEEENS_10shared_ptrI6RecordEEEEPNS_11__tree_nodeISB_PvEElEptB7v160006Ev, symObjAddr: 0x463C, symBinAddr: 0x100019F08, symSize: 0x2C }
  - { offsetInCU: 0x10AEE, offset: 0x36746, size: 0x8, addend: 0x0, symName: __ZNKSt3__112__value_typeINS_12basic_stringIcNS_11char_traitsIcEENS_9allocatorIcEEEENS_10shared_ptrI6RecordEEE11__get_valueB7v160006Ev, symObjAddr: 0x4668, symBinAddr: 0x100019F34, symSize: 0x14 }
  - { offsetInCU: 0x10B14, offset: 0x3676C, size: 0x8, addend: 0x0, symName: __ZNSt3__114pointer_traitsIPKNS_12__value_typeINS_12basic_stringIcNS_11char_traitsIcEENS_9allocatorIcEEEENS_10shared_ptrI6RecordEEEEE10pointer_toB7v160006ERSC_, symObjAddr: 0x467C, symBinAddr: 0x100019F48, symSize: 0x14 }
  - { offsetInCU: 0x10B37, offset: 0x3678F, size: 0x8, addend: 0x0, symName: __ZNKSt3__121__tree_const_iteratorINS_12__value_typeINS_12basic_stringIcNS_11char_traitsIcEENS_9allocatorIcEEEENS_10shared_ptrI6RecordEEEEPNS_11__tree_nodeISB_PvEElE8__get_npB7v160006Ev, symObjAddr: 0x4690, symBinAddr: 0x100019F5C, symSize: 0x18 }
  - { offsetInCU: 0x10B5D, offset: 0x367B5, size: 0x8, addend: 0x0, symName: __ZNSt3__121__tree_const_iteratorINS_12__value_typeINS_12basic_stringIcNS_11char_traitsIcEENS_9allocatorIcEEEENS_10shared_ptrI6RecordEEEEPNS_11__tree_nodeISB_PvEElEppB7v160006Ev, symObjAddr: 0x46A8, symBinAddr: 0x100019F74, symSize: 0x38 }
  - { offsetInCU: 0x10B83, offset: 0x367DB, size: 0x8, addend: 0x0, symName: __ZNKSt3__116__tree_node_baseIPvE15__parent_unsafeB7v160006Ev, symObjAddr: 0x47DC, symBinAddr: 0x10001A0A8, symSize: 0x18 }
  - { offsetInCU: 0x10BA9, offset: 0x36801, size: 0x8, addend: 0x0, symName: __ZNKSt3__16vectorINS_10shared_ptrI5ScopeEENS_9allocatorIS3_EEE11__make_iterB7v160006EPKS3_, symObjAddr: 0x47F4, symBinAddr: 0x10001A0C0, symSize: 0x34 }
  - { offsetInCU: 0x10BDE, offset: 0x36836, size: 0x8, addend: 0x0, symName: __ZNSt3__111__wrap_iterIPKNS_10shared_ptrI5ScopeEEEC1B7v160006EPKvS5_, symObjAddr: 0x4828, symBinAddr: 0x10001A0F4, symSize: 0x3C }
  - { offsetInCU: 0x10C24, offset: 0x3687C, size: 0x8, addend: 0x0, symName: __ZNSt3__111__wrap_iterIPKNS_10shared_ptrI5ScopeEEEC2B7v160006EPKvS5_, symObjAddr: 0x4864, symBinAddr: 0x10001A130, symSize: 0x24 }
  - { offsetInCU: 0x10C6A, offset: 0x368C2, size: 0x8, addend: 0x0, symName: __ZNKSt3__111__wrap_iterIPKNS_10shared_ptrI5ScopeEEE4baseB7v160006Ev, symObjAddr: 0x48D0, symBinAddr: 0x10001A19C, symSize: 0x18 }
  - { offsetInCU: 0x10C90, offset: 0x368E8, size: 0x8, addend: 0x0, symName: __ZN11SymbolTableD2Ev, symObjAddr: 0x5934, symBinAddr: 0x10001A1B4, symSize: 0x44 }
  - { offsetInCU: 0x5C, offset: 0x36AA5, size: 0x8, addend: 0x0, symName: __ZNSt3__1L19piecewise_constructE, symObjAddr: 0x9FAA, symBinAddr: 0x100022821, symSize: 0x0 }
  - { offsetInCU: 0x8465, offset: 0x3EEAE, size: 0x8, addend: 0x0, symName: __ZNSt3__17advanceB7v160006INS_15__list_iteratorIP4NodePvEEllvEEvRT_T0_, symObjAddr: 0x8BF8, symBinAddr: 0x10001E890, symSize: 0x50 }
  - { offsetInCU: 0x94CA, offset: 0x3FF13, size: 0x8, addend: 0x0, symName: __ZNSt3__1eqB7v160006IcNS_11char_traitsIcEENS_9allocatorIcEEEEbRKNS_12basic_stringIT_T0_T1_EEPKS6_, symObjAddr: 0xA00, symBinAddr: 0x10001AB30, symSize: 0xAC }
  - { offsetInCU: 0x9531, offset: 0x3FF7A, size: 0x8, addend: 0x0, symName: __ZNSt3__1plB7v160006IcNS_11char_traitsIcEENS_9allocatorIcEEEENS_12basic_stringIT_T0_T1_EEOS9_PKS6_, symObjAddr: 0xBA0, symBinAddr: 0x10001ACD0, symSize: 0x40 }
  - { offsetInCU: 0x9589, offset: 0x3FFD2, size: 0x8, addend: 0x0, symName: __ZNSt3__14nextB7v160006INS_15__list_iteratorIP4NodePvEEEENS_9enable_ifIXsr25__is_cpp17_input_iteratorIT_EE5valueES7_E4typeES7_NS_15iterator_traitsIS7_E15difference_typeE, symObjAddr: 0xD3C, symBinAddr: 0x10001AD10, symSize: 0x50 }
  - { offsetInCU: 0x95CC, offset: 0x40015, size: 0x8, addend: 0x0, symName: __ZNSt3__111make_sharedB7v160006I8VariableJRNS_12basic_stringIcNS_11char_traitsIcEENS_9allocatorIcEEEES8_RiEvEENS_10shared_ptrIT_EEDpOT0_, symObjAddr: 0xE70, symBinAddr: 0x10001AD8C, symSize: 0x50 }
  - { offsetInCU: 0x9821, offset: 0x4026A, size: 0x8, addend: 0x0, symName: __ZNSt3__111make_sharedB7v160006I5ScopeJNS_10shared_ptrIS1_EERKNS_12basic_stringIcNS_11char_traitsIcEENS_9allocatorIcEEEESB_EvEENS2_IT_EEDpOT0_, symObjAddr: 0x1474, symBinAddr: 0x10001B300, symSize: 0x50 }
  - { offsetInCU: 0x988C, offset: 0x402D5, size: 0x8, addend: 0x0, symName: __ZNSt3__115allocate_sharedB7v160006I5ScopeNS_9allocatorIS1_EEJNS_10shared_ptrIS1_EERKNS_12basic_stringIcNS_11char_traitsIcEENS2_IcEEEESC_EvEENS4_IT_EERKT0_DpOT1_, symObjAddr: 0x1568, symBinAddr: 0x10001B3F4, symSize: 0xA8 }
  - { offsetInCU: 0x992E, offset: 0x40377, size: 0x8, addend: 0x0, symName: __ZNSt3__120__throw_bad_weak_ptrB7v160006Ev, symObjAddr: 0x36B0, symBinAddr: 0x10001B714, symSize: 0x38 }
  - { offsetInCU: 0x99B1, offset: 0x403FA, size: 0x8, addend: 0x0, symName: __ZNSt3__119__allocate_at_leastB7v160006INS_9allocatorINS_10shared_ptrI5ScopeEEEEEENS_19__allocation_resultINS_16allocator_traitsIT_E7pointerEEERS8_m, symObjAddr: 0x41AC, symBinAddr: 0x10001BF38, symSize: 0x40 }
  - { offsetInCU: 0x99F4, offset: 0x4043D, size: 0x8, addend: 0x0, symName: __ZNSt3__142__uninitialized_allocator_move_if_noexceptB7v160006INS_9allocatorINS_10shared_ptrI5ScopeEEEENS_16reverse_iteratorIPS4_EES8_S8_EET2_RT_T0_T1_S9_, symObjAddr: 0x4360, symBinAddr: 0x10001C0EC, symSize: 0x12C }
  - { offsetInCU: 0x9A94, offset: 0x404DD, size: 0x8, addend: 0x0, symName: __ZNSt3__14swapB7v160006IPNS_10shared_ptrI5ScopeEEEENS_9enable_ifIXaasr21is_move_constructibleIT_EE5valuesr18is_move_assignableIS6_EE5valueEvE4typeERS6_S9_, symObjAddr: 0x44D8, symBinAddr: 0x10001C264, symSize: 0x3C }
  - { offsetInCU: 0x9AE5, offset: 0x4052E, size: 0x8, addend: 0x0, symName: __ZNSt3__125__debug_db_invalidate_allB7v160006INS_6vectorINS_10shared_ptrI5ScopeEENS_9allocatorIS4_EEEEEEvPT_, symObjAddr: 0x45C0, symBinAddr: 0x10001C34C, symSize: 0x10 }
  - { offsetInCU: 0x9B16, offset: 0x4055F, size: 0x8, addend: 0x0, symName: __ZNSt3__122__make_exception_guardB7v160006INS_29_AllocatorDestroyRangeReverseINS_9allocatorINS_10shared_ptrI5ScopeEEEENS_16reverse_iteratorIPS5_EEEEEENS_28__exception_guard_exceptionsIT_EESC_, symObjAddr: 0x45D0, symBinAddr: 0x10001C35C, symSize: 0x4C }
  - { offsetInCU: 0x9B4C, offset: 0x40595, size: 0x8, addend: 0x0, symName: __ZNSt3__1neB7v160006IPNS_10shared_ptrI5ScopeEES4_EEbRKNS_16reverse_iteratorIT_EERKNS5_IT0_EE, symObjAddr: 0x4660, symBinAddr: 0x10001C3EC, symSize: 0x48 }
  - { offsetInCU: 0x9B98, offset: 0x405E1, size: 0x8, addend: 0x0, symName: __ZNSt3__112__to_addressB7v160006INS_16reverse_iteratorIPNS_10shared_ptrI5ScopeEEEEvEENS_5decayIDTclsr19__to_address_helperIT_EE6__callclsr3stdE7declvalIRKS8_EEEEE4typeESA_, symObjAddr: 0x46DC, symBinAddr: 0x10001C468, symSize: 0x24 }
  - { offsetInCU: 0x9BF7, offset: 0x40640, size: 0x8, addend: 0x0, symName: __ZNSt3__119__allocator_destroyB7v160006INS_9allocatorINS_10shared_ptrI5ScopeEEEENS_16reverse_iteratorINS6_IPS4_EEEES9_EEvRT_T0_T1_, symObjAddr: 0x49BC, symBinAddr: 0x10001C748, symSize: 0x70 }
  - { offsetInCU: 0x9C5C, offset: 0x406A5, size: 0x8, addend: 0x0, symName: __ZNSt3__1neB7v160006INS_16reverse_iteratorIPNS_10shared_ptrI5ScopeEEEES6_EEbRKNS1_IT_EERKNS1_IT0_EE, symObjAddr: 0x4A68, symBinAddr: 0x10001C7F4, symSize: 0x60 }
  - { offsetInCU: 0x9CA8, offset: 0x406F1, size: 0x8, addend: 0x0, symName: __ZNSt3__112__to_addressB7v160006INS_16reverse_iteratorINS1_IPNS_10shared_ptrI5ScopeEEEEEEvEENS_5decayIDTclsr19__to_address_helperIT_EE6__callclsr3stdE7declvalIRKS9_EEEEE4typeESB_, symObjAddr: 0x4AC8, symBinAddr: 0x10001C854, symSize: 0x24 }
  - { offsetInCU: 0x9D3E, offset: 0x40787, size: 0x8, addend: 0x0, symName: __ZNSt3__116forward_as_tupleB7v160006IJRKNS_12basic_stringIcNS_11char_traitsIcEENS_9allocatorIcEEEEEEENS_5tupleIJDpOT_EEESC_, symObjAddr: 0x5230, symBinAddr: 0x10001CE80, symSize: 0x2C }
  - { offsetInCU: 0x9D77, offset: 0x407C0, size: 0x8, addend: 0x0, symName: __ZNSt3__116forward_as_tupleB7v160006IJEEENS_5tupleIJDpOT_EEES4_, symObjAddr: 0x525C, symBinAddr: 0x10001CEAC, symSize: 0x4 }
  - { offsetInCU: 0x9D9B, offset: 0x407E4, size: 0x8, addend: 0x0, symName: __ZNSt3__1ltB7v160006IcNS_11char_traitsIcEENS_9allocatorIcEEEEbRKNS_12basic_stringIT_T0_T1_EESB_, symObjAddr: 0x5868, symBinAddr: 0x10001D4A4, symSize: 0x38 }
  - { offsetInCU: 0x9E17, offset: 0x40860, size: 0x8, addend: 0x0, symName: __ZNSt3__118__constexpr_memcmpB7v160006IcEEiPKT_S3_m, symObjAddr: 0x5C4C, symBinAddr: 0x10001D740, symSize: 0x34 }
  - { offsetInCU: 0x9E92, offset: 0x408DB, size: 0x8, addend: 0x0, symName: __ZNSt3__13getB7v160006ILm0EJRKNS_12basic_stringIcNS_11char_traitsIcEENS_9allocatorIcEEEEEEERNS_13tuple_elementIXT_ENS_5tupleIJDpT0_EEEE4typeERSD_, symObjAddr: 0x6210, symBinAddr: 0x10001DC38, symSize: 0x24 }
  - { offsetInCU: 0x9ED5, offset: 0x4091E, size: 0x8, addend: 0x0, symName: __ZNSt3__127__tree_balance_after_insertB7v160006IPNS_16__tree_node_baseIPvEEEEvT_S5_, symObjAddr: 0x6308, symBinAddr: 0x10001DD30, symSize: 0x32C }
  - { offsetInCU: 0x9F53, offset: 0x4099C, size: 0x8, addend: 0x0, symName: __ZNSt3__118__tree_left_rotateB7v160006IPNS_16__tree_node_baseIPvEEEEvT_, symObjAddr: 0x66A0, symBinAddr: 0x10001E084, symSize: 0xD8 }
  - { offsetInCU: 0x9F95, offset: 0x409DE, size: 0x8, addend: 0x0, symName: __ZNSt3__119__tree_right_rotateB7v160006IPNS_16__tree_node_baseIPvEEEEvT_, symObjAddr: 0x6778, symBinAddr: 0x10001E15C, symSize: 0xCC }
  - { offsetInCU: 0xA02E, offset: 0x40A77, size: 0x8, addend: 0x0, symName: __ZNSt3__14swapB7v160006IP6RecordEENS_9enable_ifIXaasr21is_move_constructibleIT_EE5valuesr18is_move_assignableIS4_EE5valueEvE4typeERS4_S7_, symObjAddr: 0x6BC8, symBinAddr: 0x10001E598, symSize: 0x3C }
  - { offsetInCU: 0xA07F, offset: 0x40AC8, size: 0x8, addend: 0x0, symName: __ZNSt3__121__convert_to_integralB7v160006El, symObjAddr: 0x8C48, symBinAddr: 0x10001E8E0, symSize: 0x14 }
  - { offsetInCU: 0xA0AB, offset: 0x40AF4, size: 0x8, addend: 0x0, symName: __ZNSt3__19__advanceB7v160006INS_15__list_iteratorIP4NodePvEEEEvRT_NS_15iterator_traitsIS6_E15difference_typeENS_26bidirectional_iterator_tagE, symObjAddr: 0x8C5C, symBinAddr: 0x10001E8F4, symSize: 0xA4 }
  - { offsetInCU: 0xA0F6, offset: 0x40B3F, size: 0x8, addend: 0x0, symName: __ZNSt3__115allocate_sharedB7v160006I8VariableNS_9allocatorIS1_EEJRNS_12basic_stringIcNS_11char_traitsIcEENS2_IcEEEES9_RiEvEENS_10shared_ptrIT_EERKT0_DpOT1_, symObjAddr: 0x8D20, symBinAddr: 0x10001E9B8, symSize: 0xA8 }
  - { offsetInCU: 0xAEDE, offset: 0x41927, size: 0x8, addend: 0x0, symName: __ZNSt3__16vectorINS_10shared_ptrI5ScopeEENS_9allocatorIS3_EEE26__swap_out_circular_bufferERNS_14__split_bufferIS3_RS5_EE, symObjAddr: 0x3C10, symBinAddr: 0x10001BBD0, symSize: 0x118 }
  - { offsetInCU: 0xD279, offset: 0x43CC2, size: 0x8, addend: 0x0, symName: __Z11traverseASTP4NodeR11SymbolTable, symObjAddr: 0x0, symBinAddr: 0x10001A1F8, symSize: 0x908 }
  - { offsetInCU: 0xD3FA, offset: 0x43E43, size: 0x8, addend: 0x0, symName: __ZNKSt3__112basic_stringIcNS_11char_traitsIcEENS_9allocatorIcEEE5emptyB7v160006Ev, symObjAddr: 0x99C, symBinAddr: 0x10001AB00, symSize: 0x30 }
  - { offsetInCU: 0xD425, offset: 0x43E6E, size: 0x8, addend: 0x0, symName: __ZN11SymbolTable10enterScopeERKNSt3__112basic_stringIcNS0_11char_traitsIcEENS0_9allocatorIcEEEES8_, symObjAddr: 0xAAC, symBinAddr: 0x10001ABDC, symSize: 0xA0 }
  - { offsetInCU: 0xD467, offset: 0x43EB0, size: 0x8, addend: 0x0, symName: __ZNKSt3__14listIP4NodeNS_9allocatorIS2_EEE5emptyB7v160006Ev, symObjAddr: 0xB4C, symBinAddr: 0x10001AC7C, symSize: 0x28 }
  - { offsetInCU: 0xD48D, offset: 0x43ED6, size: 0x8, addend: 0x0, symName: __ZNSt3__14listIP4NodeNS_9allocatorIS2_EEE5frontB7v160006Ev, symObjAddr: 0xB74, symBinAddr: 0x10001ACA4, symSize: 0x2C }
  - { offsetInCU: 0xD4B3, offset: 0x43EFC, size: 0x8, addend: 0x0, symName: __ZNSt3__14listIP4NodeNS_9allocatorIS2_EEE4backB7v160006Ev, symObjAddr: 0xE44, symBinAddr: 0x10001AD60, symSize: 0x2C }
  - { offsetInCU: 0xD4D9, offset: 0x43F22, size: 0x8, addend: 0x0, symName: __ZN11SymbolTable3putERKNSt3__112basic_stringIcNS0_11char_traitsIcEENS0_9allocatorIcEEEENS0_10shared_ptrI6RecordEE, symObjAddr: 0xEC0, symBinAddr: 0x10001ADDC, symSize: 0x120 }
  - { offsetInCU: 0xD53F, offset: 0x43F88, size: 0x8, addend: 0x0, symName: __ZNSt3__110shared_ptrI6RecordEC1B7v160006I8VariablevEERKNS0_IT_EE, symObjAddr: 0xFE0, symBinAddr: 0x10001AEFC, symSize: 0x34 }
  - { offsetInCU: 0xD582, offset: 0x43FCB, size: 0x8, addend: 0x0, symName: __ZNSt3__110shared_ptrI8VariableED1B7v160006Ev, symObjAddr: 0x1040, symBinAddr: 0x10001AF30, symSize: 0x2C }
  - { offsetInCU: 0xD5AC, offset: 0x43FF5, size: 0x8, addend: 0x0, symName: __ZN11SymbolTable9exitScopeEv, symObjAddr: 0x108C, symBinAddr: 0x10001AF5C, symSize: 0x104 }
  - { offsetInCU: 0xD5E6, offset: 0x4402F, size: 0x8, addend: 0x0, symName: __Z33traverseASTAndPopulateSymbolTableP4NodeR11SymbolTable, symObjAddr: 0x1190, symBinAddr: 0x10001B060, symSize: 0x168 }
  - { offsetInCU: 0xD661, offset: 0x440AA, size: 0x8, addend: 0x0, symName: __ZN5Scope9nextChildERKNSt3__112basic_stringIcNS0_11char_traitsIcEENS0_9allocatorIcEEEES8_, symObjAddr: 0x1310, symBinAddr: 0x10001B1C8, symSize: 0xE8 }
  - { offsetInCU: 0xD6B2, offset: 0x440FB, size: 0x8, addend: 0x0, symName: __ZNSt3__110shared_ptrI5ScopeEaSB7v160006EOS2_, symObjAddr: 0x13F8, symBinAddr: 0x10001B2B0, symSize: 0x50 }
  - { offsetInCU: 0xD6E7, offset: 0x44130, size: 0x8, addend: 0x0, symName: __ZNSt3__123enable_shared_from_thisI5ScopeE16shared_from_thisB7v160006Ev, symObjAddr: 0x14C4, symBinAddr: 0x10001B350, symSize: 0x38 }
  - { offsetInCU: 0xD70D, offset: 0x44156, size: 0x8, addend: 0x0, symName: __ZNSt3__16vectorINS_10shared_ptrI5ScopeEENS_9allocatorIS3_EEE9push_backB7v160006ERKS3_, symObjAddr: 0x14FC, symBinAddr: 0x10001B388, symSize: 0x6C }
  - { offsetInCU: 0xD744, offset: 0x4418D, size: 0x8, addend: 0x0, symName: __ZNSt3__120__shared_ptr_emplaceI5ScopeNS_9allocatorIS1_EEEC1B7v160006IJNS_10shared_ptrIS1_EERKNS_12basic_stringIcNS_11char_traitsIcEENS2_IcEEEESE_EEES3_DpOT_, symObjAddr: 0x1688, symBinAddr: 0x10001B49C, symSize: 0x44 }
  - { offsetInCU: 0xD7BF, offset: 0x44208, size: 0x8, addend: 0x0, symName: __ZNSt3__120__shared_ptr_emplaceI5ScopeNS_9allocatorIS1_EEEC2B7v160006IJNS_10shared_ptrIS1_EERKNS_12basic_stringIcNS_11char_traitsIcEENS2_IcEEEESE_EEES3_DpOT_, symObjAddr: 0x19E8, symBinAddr: 0x10001B4E0, symSize: 0xEC }
  - { offsetInCU: 0xD83A, offset: 0x44283, size: 0x8, addend: 0x0, symName: __ZNSt3__110shared_ptrI5ScopeEC1B7v160006EOS2_, symObjAddr: 0x1B5C, symBinAddr: 0x10001B5CC, symSize: 0x34 }
  - { offsetInCU: 0xD873, offset: 0x442BC, size: 0x8, addend: 0x0, symName: __ZNSt3__110shared_ptrI5ScopeEC2B7v160006EOS2_, symObjAddr: 0x1D90, symBinAddr: 0x10001B600, symSize: 0x40 }
  - { offsetInCU: 0xD8B1, offset: 0x442FA, size: 0x8, addend: 0x0, symName: __ZNSt3__110shared_ptrI5ScopeEC1B7v160006IS1_vEERKNS_8weak_ptrIT_EE, symObjAddr: 0x35DC, symBinAddr: 0x10001B640, symSize: 0x34 }
  - { offsetInCU: 0xD8F4, offset: 0x4433D, size: 0x8, addend: 0x0, symName: __ZNSt3__110shared_ptrI5ScopeEC2B7v160006IS1_vEERKNS_8weak_ptrIT_EE, symObjAddr: 0x3610, symBinAddr: 0x10001B674, symSize: 0xA0 }
  - { offsetInCU: 0xD94B, offset: 0x44394, size: 0x8, addend: 0x0, symName: __ZNSt3__112bad_weak_ptrC1Ev, symObjAddr: 0x36E8, symBinAddr: 0x10001B74C, symSize: 0x2C }
  - { offsetInCU: 0xD975, offset: 0x443BE, size: 0x8, addend: 0x0, symName: __ZNSt3__112bad_weak_ptrC2Ev, symObjAddr: 0x3714, symBinAddr: 0x10001B778, symSize: 0x44 }
  - { offsetInCU: 0xD99F, offset: 0x443E8, size: 0x8, addend: 0x0, symName: __ZNSt9exceptionC2B7v160006Ev, symObjAddr: 0x3758, symBinAddr: 0x10001B7BC, symSize: 0x24 }
  - { offsetInCU: 0xD9C9, offset: 0x44412, size: 0x8, addend: 0x0, symName: __ZNSt3__16vectorINS_10shared_ptrI5ScopeEENS_9allocatorIS3_EEE9__end_capB7v160006Ev, symObjAddr: 0x377C, symBinAddr: 0x10001B7E0, symSize: 0x28 }
  - { offsetInCU: 0xD9EF, offset: 0x44438, size: 0x8, addend: 0x0, symName: __ZNSt3__16vectorINS_10shared_ptrI5ScopeEENS_9allocatorIS3_EEE22__construct_one_at_endB7v160006IJRKS3_EEEvDpOT_, symObjAddr: 0x37A4, symBinAddr: 0x10001B808, symSize: 0x90 }
  - { offsetInCU: 0xDA3E, offset: 0x44487, size: 0x8, addend: 0x0, symName: __ZNSt3__16vectorINS_10shared_ptrI5ScopeEENS_9allocatorIS3_EEE21__push_back_slow_pathIRKS3_EEvOT_, symObjAddr: 0x3834, symBinAddr: 0x10001B898, symSize: 0xD8 }
  - { offsetInCU: 0xDA9C, offset: 0x444E5, size: 0x8, addend: 0x0, symName: __ZNSt3__117__compressed_pairIPNS_10shared_ptrI5ScopeEENS_9allocatorIS3_EEE5firstB7v160006Ev, symObjAddr: 0x390C, symBinAddr: 0x10001B970, symSize: 0x24 }
  - { offsetInCU: 0xDAC2, offset: 0x4450B, size: 0x8, addend: 0x0, symName: __ZNSt3__122__compressed_pair_elemIPNS_10shared_ptrI5ScopeEELi0ELb0EE5__getB7v160006Ev, symObjAddr: 0x3930, symBinAddr: 0x10001B994, symSize: 0x14 }
  - { offsetInCU: 0xDB01, offset: 0x4454A, size: 0x8, addend: 0x0, symName: __ZNSt3__16vectorINS_10shared_ptrI5ScopeEENS_9allocatorIS3_EEE21_ConstructTransactionC1B7v160006ERS6_m, symObjAddr: 0x3944, symBinAddr: 0x10001B9A8, symSize: 0x3C }
  - { offsetInCU: 0xDB49, offset: 0x44592, size: 0x8, addend: 0x0, symName: __ZNSt3__116allocator_traitsINS_9allocatorINS_10shared_ptrI5ScopeEEEEE9constructB7v160006IS4_JRKS4_EvEEvRS5_PT_DpOT0_, symObjAddr: 0x3980, symBinAddr: 0x10001B9E4, symSize: 0x34 }
  - { offsetInCU: 0xDBA0, offset: 0x445E9, size: 0x8, addend: 0x0, symName: __ZNSt3__16vectorINS_10shared_ptrI5ScopeEENS_9allocatorIS3_EEE21_ConstructTransactionD1B7v160006Ev, symObjAddr: 0x39B4, symBinAddr: 0x10001BA18, symSize: 0x2C }
  - { offsetInCU: 0xDBCA, offset: 0x44613, size: 0x8, addend: 0x0, symName: __ZNSt3__16vectorINS_10shared_ptrI5ScopeEENS_9allocatorIS3_EEE21_ConstructTransactionC2B7v160006ERS6_m, symObjAddr: 0x39E0, symBinAddr: 0x10001BA44, symSize: 0x44 }
  - { offsetInCU: 0xDC12, offset: 0x4465B, size: 0x8, addend: 0x0, symName: __ZNSt3__19allocatorINS_10shared_ptrI5ScopeEEE9constructB7v160006IS3_JRKS3_EEEvPT_DpOT0_, symObjAddr: 0x3A24, symBinAddr: 0x10001BA88, symSize: 0x30 }
  - { offsetInCU: 0xDC68, offset: 0x446B1, size: 0x8, addend: 0x0, symName: __ZNSt3__16vectorINS_10shared_ptrI5ScopeEENS_9allocatorIS3_EEE21_ConstructTransactionD2B7v160006Ev, symObjAddr: 0x3AF8, symBinAddr: 0x10001BAB8, symSize: 0x20 }
  - { offsetInCU: 0xDC92, offset: 0x446DB, size: 0x8, addend: 0x0, symName: __ZNKSt3__16vectorINS_10shared_ptrI5ScopeEENS_9allocatorIS3_EEE11__recommendB7v160006Em, symObjAddr: 0x3B18, symBinAddr: 0x10001BAD8, symSize: 0xB4 }
  - { offsetInCU: 0xDCE7, offset: 0x44730, size: 0x8, addend: 0x0, symName: __ZNSt3__114__split_bufferINS_10shared_ptrI5ScopeEERNS_9allocatorIS3_EEEC1EmmS6_, symObjAddr: 0x3BCC, symBinAddr: 0x10001BB8C, symSize: 0x44 }
  - { offsetInCU: 0xDD3D, offset: 0x44786, size: 0x8, addend: 0x0, symName: __ZNSt3__114__split_bufferINS_10shared_ptrI5ScopeEERNS_9allocatorIS3_EEED1Ev, symObjAddr: 0x3D28, symBinAddr: 0x10001BCE8, symSize: 0x2C }
  - { offsetInCU: 0xDD69, offset: 0x447B2, size: 0x8, addend: 0x0, symName: __ZNKSt3__16vectorINS_10shared_ptrI5ScopeEENS_9allocatorIS3_EEE8max_sizeEv, symObjAddr: 0x3D54, symBinAddr: 0x10001BD14, symSize: 0x60 }
  - { offsetInCU: 0xDD91, offset: 0x447DA, size: 0x8, addend: 0x0, symName: __ZNKSt3__16vectorINS_10shared_ptrI5ScopeEENS_9allocatorIS3_EEE20__throw_length_errorB7v160006Ev, symObjAddr: 0x3DB4, symBinAddr: 0x10001BD74, symSize: 0x1C }
  - { offsetInCU: 0xDDC1, offset: 0x4480A, size: 0x8, addend: 0x0, symName: __ZNSt3__116allocator_traitsINS_9allocatorINS_10shared_ptrI5ScopeEEEEE8max_sizeB7v160006IS5_vEEmRKS5_, symObjAddr: 0x3E28, symBinAddr: 0x10001BD90, symSize: 0x24 }
  - { offsetInCU: 0xDDEF, offset: 0x44838, size: 0x8, addend: 0x0, symName: __ZNKSt3__16vectorINS_10shared_ptrI5ScopeEENS_9allocatorIS3_EEE7__allocB7v160006Ev, symObjAddr: 0x3E4C, symBinAddr: 0x10001BDB4, symSize: 0x28 }
  - { offsetInCU: 0xDE15, offset: 0x4485E, size: 0x8, addend: 0x0, symName: __ZNKSt3__19allocatorINS_10shared_ptrI5ScopeEEE8max_sizeB7v160006Ev, symObjAddr: 0x3F10, symBinAddr: 0x10001BDDC, symSize: 0x14 }
  - { offsetInCU: 0xDE3B, offset: 0x44884, size: 0x8, addend: 0x0, symName: __ZNKSt3__117__compressed_pairIPNS_10shared_ptrI5ScopeEENS_9allocatorIS3_EEE6secondB7v160006Ev, symObjAddr: 0x3F24, symBinAddr: 0x10001BDF0, symSize: 0x24 }
  - { offsetInCU: 0xDE61, offset: 0x448AA, size: 0x8, addend: 0x0, symName: __ZNKSt3__122__compressed_pair_elemINS_9allocatorINS_10shared_ptrI5ScopeEEEELi1ELb1EE5__getB7v160006Ev, symObjAddr: 0x3F48, symBinAddr: 0x10001BE14, symSize: 0x14 }
  - { offsetInCU: 0xDE87, offset: 0x448D0, size: 0x8, addend: 0x0, symName: __ZNSt3__114__split_bufferINS_10shared_ptrI5ScopeEERNS_9allocatorIS3_EEEC2EmmS6_, symObjAddr: 0x409C, symBinAddr: 0x10001BE28, symSize: 0xD4 }
  - { offsetInCU: 0xDEFB, offset: 0x44944, size: 0x8, addend: 0x0, symName: __ZNSt3__117__compressed_pairIPNS_10shared_ptrI5ScopeEERNS_9allocatorIS3_EEEC1B7v160006IDnS7_EEOT_OT0_, symObjAddr: 0x4170, symBinAddr: 0x10001BEFC, symSize: 0x3C }
  - { offsetInCU: 0xDF53, offset: 0x4499C, size: 0x8, addend: 0x0, symName: __ZNSt3__114__split_bufferINS_10shared_ptrI5ScopeEERNS_9allocatorIS3_EEE7__allocB7v160006Ev, symObjAddr: 0x41EC, symBinAddr: 0x10001BF78, symSize: 0x28 }
  - { offsetInCU: 0xDF79, offset: 0x449C2, size: 0x8, addend: 0x0, symName: __ZNSt3__114__split_bufferINS_10shared_ptrI5ScopeEERNS_9allocatorIS3_EEE9__end_capB7v160006Ev, symObjAddr: 0x4214, symBinAddr: 0x10001BFA0, symSize: 0x28 }
  - { offsetInCU: 0xDF9F, offset: 0x449E8, size: 0x8, addend: 0x0, symName: __ZNSt3__117__compressed_pairIPNS_10shared_ptrI5ScopeEERNS_9allocatorIS3_EEEC2B7v160006IDnS7_EEOT_OT0_, symObjAddr: 0x423C, symBinAddr: 0x10001BFC8, symSize: 0x48 }
  - { offsetInCU: 0xDFF7, offset: 0x44A40, size: 0x8, addend: 0x0, symName: __ZNSt3__122__compressed_pair_elemIRNS_9allocatorINS_10shared_ptrI5ScopeEEEELi1ELb0EEC2B7v160006IS6_vEEOT_, symObjAddr: 0x4284, symBinAddr: 0x10001C010, symSize: 0x20 }
  - { offsetInCU: 0xE039, offset: 0x44A82, size: 0x8, addend: 0x0, symName: __ZNSt3__19allocatorINS_10shared_ptrI5ScopeEEE8allocateB7v160006Em, symObjAddr: 0x42A4, symBinAddr: 0x10001C030, symSize: 0x58 }
  - { offsetInCU: 0xE06D, offset: 0x44AB6, size: 0x8, addend: 0x0, symName: __ZNSt3__117__compressed_pairIPNS_10shared_ptrI5ScopeEERNS_9allocatorIS3_EEE6secondB7v160006Ev, symObjAddr: 0x42FC, symBinAddr: 0x10001C088, symSize: 0x28 }
  - { offsetInCU: 0xE093, offset: 0x44ADC, size: 0x8, addend: 0x0, symName: __ZNSt3__122__compressed_pair_elemIRNS_9allocatorINS_10shared_ptrI5ScopeEEEELi1ELb0EE5__getB7v160006Ev, symObjAddr: 0x4324, symBinAddr: 0x10001C0B0, symSize: 0x18 }
  - { offsetInCU: 0xE0B9, offset: 0x44B02, size: 0x8, addend: 0x0, symName: __ZNSt3__117__compressed_pairIPNS_10shared_ptrI5ScopeEERNS_9allocatorIS3_EEE5firstB7v160006Ev, symObjAddr: 0x433C, symBinAddr: 0x10001C0C8, symSize: 0x24 }
  - { offsetInCU: 0xE0DF, offset: 0x44B28, size: 0x8, addend: 0x0, symName: __ZNSt3__116reverse_iteratorIPNS_10shared_ptrI5ScopeEEEC1B7v160006ES4_, symObjAddr: 0x448C, symBinAddr: 0x10001C218, symSize: 0x34 }
  - { offsetInCU: 0xE117, offset: 0x44B60, size: 0x8, addend: 0x0, symName: __ZNKSt3__116reverse_iteratorIPNS_10shared_ptrI5ScopeEEE4baseB7v160006Ev, symObjAddr: 0x44C0, symBinAddr: 0x10001C24C, symSize: 0x18 }
  - { offsetInCU: 0xE13D, offset: 0x44B86, size: 0x8, addend: 0x0, symName: __ZNKSt3__16vectorINS_10shared_ptrI5ScopeEENS_9allocatorIS3_EEE14__annotate_newB7v160006Em, symObjAddr: 0x4514, symBinAddr: 0x10001C2A0, symSize: 0xAC }
  - { offsetInCU: 0xE172, offset: 0x44BBB, size: 0x8, addend: 0x0, symName: __ZNSt3__129_AllocatorDestroyRangeReverseINS_9allocatorINS_10shared_ptrI5ScopeEEEENS_16reverse_iteratorIPS4_EEEC1B7v160006ERS5_RS8_SB_, symObjAddr: 0x461C, symBinAddr: 0x10001C3A8, symSize: 0x44 }
  - { offsetInCU: 0xE1C9, offset: 0x44C12, size: 0x8, addend: 0x0, symName: __ZNSt3__116allocator_traitsINS_9allocatorINS_10shared_ptrI5ScopeEEEEE9constructB7v160006IS4_JS4_EvEEvRS5_PT_DpOT0_, symObjAddr: 0x46A8, symBinAddr: 0x10001C434, symSize: 0x34 }
  - { offsetInCU: 0xE220, offset: 0x44C69, size: 0x8, addend: 0x0, symName: __ZNKSt3__116reverse_iteratorIPNS_10shared_ptrI5ScopeEEEdeB7v160006Ev, symObjAddr: 0x4700, symBinAddr: 0x10001C48C, symSize: 0x28 }
  - { offsetInCU: 0xE254, offset: 0x44C9D, size: 0x8, addend: 0x0, symName: __ZNSt3__116reverse_iteratorIPNS_10shared_ptrI5ScopeEEEppB7v160006Ev, symObjAddr: 0x4728, symBinAddr: 0x10001C4B4, symSize: 0x20 }
  - { offsetInCU: 0xE27A, offset: 0x44CC3, size: 0x8, addend: 0x0, symName: __ZNSt3__128__exception_guard_exceptionsINS_29_AllocatorDestroyRangeReverseINS_9allocatorINS_10shared_ptrI5ScopeEEEENS_16reverse_iteratorIPS5_EEEEE10__completeB7v160006Ev, symObjAddr: 0x4748, symBinAddr: 0x10001C4D4, symSize: 0x1C }
  - { offsetInCU: 0xE2A0, offset: 0x44CE9, size: 0x8, addend: 0x0, symName: __ZNSt3__128__exception_guard_exceptionsINS_29_AllocatorDestroyRangeReverseINS_9allocatorINS_10shared_ptrI5ScopeEEEENS_16reverse_iteratorIPS5_EEEEED1B7v160006Ev, symObjAddr: 0x4764, symBinAddr: 0x10001C4F0, symSize: 0x2C }
  - { offsetInCU: 0xE2CA, offset: 0x44D13, size: 0x8, addend: 0x0, symName: __ZNSt3__128__exception_guard_exceptionsINS_29_AllocatorDestroyRangeReverseINS_9allocatorINS_10shared_ptrI5ScopeEEEENS_16reverse_iteratorIPS5_EEEEEC1B7v160006ESA_, symObjAddr: 0x4790, symBinAddr: 0x10001C51C, symSize: 0x34 }
  - { offsetInCU: 0xE303, offset: 0x44D4C, size: 0x8, addend: 0x0, symName: __ZNSt3__128__exception_guard_exceptionsINS_29_AllocatorDestroyRangeReverseINS_9allocatorINS_10shared_ptrI5ScopeEEEENS_16reverse_iteratorIPS5_EEEEEC2B7v160006ESA_, symObjAddr: 0x47C4, symBinAddr: 0x10001C550, symSize: 0x30 }
  - { offsetInCU: 0xE33C, offset: 0x44D85, size: 0x8, addend: 0x0, symName: __ZNSt3__129_AllocatorDestroyRangeReverseINS_9allocatorINS_10shared_ptrI5ScopeEEEENS_16reverse_iteratorIPS4_EEEC2B7v160006ERS5_RS8_SB_, symObjAddr: 0x47F4, symBinAddr: 0x10001C580, symSize: 0x38 }
  - { offsetInCU: 0xE393, offset: 0x44DDC, size: 0x8, addend: 0x0, symName: __ZNSt3__19allocatorINS_10shared_ptrI5ScopeEEE9constructB7v160006IS3_JS3_EEEvPT_DpOT0_, symObjAddr: 0x482C, symBinAddr: 0x10001C5B8, symSize: 0x30 }
  - { offsetInCU: 0xE3EE, offset: 0x44E37, size: 0x8, addend: 0x0, symName: __ZNSt3__119__to_address_helperINS_16reverse_iteratorIPNS_10shared_ptrI5ScopeEEEEvE6__callB7v160006ERKS6_, symObjAddr: 0x485C, symBinAddr: 0x10001C5E8, symSize: 0x38 }
  - { offsetInCU: 0xE411, offset: 0x44E5A, size: 0x8, addend: 0x0, symName: __ZNKSt3__116reverse_iteratorIPNS_10shared_ptrI5ScopeEEEptB7v160006Ev, symObjAddr: 0x4894, symBinAddr: 0x10001C620, symSize: 0x24 }
  - { offsetInCU: 0xE437, offset: 0x44E80, size: 0x8, addend: 0x0, symName: __ZNSt3__128__exception_guard_exceptionsINS_29_AllocatorDestroyRangeReverseINS_9allocatorINS_10shared_ptrI5ScopeEEEENS_16reverse_iteratorIPS5_EEEEED2B7v160006Ev, symObjAddr: 0x48B8, symBinAddr: 0x10001C644, symSize: 0x50 }
  - { offsetInCU: 0xE461, offset: 0x44EAA, size: 0x8, addend: 0x0, symName: __ZNKSt3__129_AllocatorDestroyRangeReverseINS_9allocatorINS_10shared_ptrI5ScopeEEEENS_16reverse_iteratorIPS4_EEEclB7v160006Ev, symObjAddr: 0x4908, symBinAddr: 0x10001C694, symSize: 0xB4 }
  - { offsetInCU: 0xE488, offset: 0x44ED1, size: 0x8, addend: 0x0, symName: __ZNSt3__116reverse_iteratorINS0_IPNS_10shared_ptrI5ScopeEEEEEC1B7v160006ES5_, symObjAddr: 0x4A2C, symBinAddr: 0x10001C7B8, symSize: 0x3C }
  - { offsetInCU: 0xE4C0, offset: 0x44F09, size: 0x8, addend: 0x0, symName: __ZNSt3__116reverse_iteratorINS0_IPNS_10shared_ptrI5ScopeEEEEEppB7v160006Ev, symObjAddr: 0x4AEC, symBinAddr: 0x10001C878, symSize: 0x30 }
  - { offsetInCU: 0xE4E6, offset: 0x44F2F, size: 0x8, addend: 0x0, symName: __ZNKSt3__116reverse_iteratorINS0_IPNS_10shared_ptrI5ScopeEEEEE4baseB7v160006Ev, symObjAddr: 0x4B1C, symBinAddr: 0x10001C8A8, symSize: 0x24 }
  - { offsetInCU: 0xE511, offset: 0x44F5A, size: 0x8, addend: 0x0, symName: __ZNSt3__119__to_address_helperINS_16reverse_iteratorINS1_IPNS_10shared_ptrI5ScopeEEEEEEvE6__callB7v160006ERKS7_, symObjAddr: 0x4B40, symBinAddr: 0x10001C8CC, symSize: 0x38 }
  - { offsetInCU: 0xE534, offset: 0x44F7D, size: 0x8, addend: 0x0, symName: __ZNKSt3__116reverse_iteratorINS0_IPNS_10shared_ptrI5ScopeEEEEEptB7v160006Ev, symObjAddr: 0x4B78, symBinAddr: 0x10001C904, symSize: 0x24 }
  - { offsetInCU: 0xE55A, offset: 0x44FA3, size: 0x8, addend: 0x0, symName: __ZNKSt3__116reverse_iteratorINS0_IPNS_10shared_ptrI5ScopeEEEEEdeB7v160006Ev, symObjAddr: 0x4B9C, symBinAddr: 0x10001C928, symSize: 0x34 }
  - { offsetInCU: 0xE58E, offset: 0x44FD7, size: 0x8, addend: 0x0, symName: __ZNSt3__116reverse_iteratorIPNS_10shared_ptrI5ScopeEEEmmB7v160006Ev, symObjAddr: 0x4BD0, symBinAddr: 0x10001C95C, symSize: 0x20 }
  - { offsetInCU: 0xE5B4, offset: 0x44FFD, size: 0x8, addend: 0x0, symName: __ZNSt3__116reverse_iteratorINS0_IPNS_10shared_ptrI5ScopeEEEEEC2B7v160006ES5_, symObjAddr: 0x4BF0, symBinAddr: 0x10001C97C, symSize: 0x2C }
  - { offsetInCU: 0xE5EC, offset: 0x45035, size: 0x8, addend: 0x0, symName: __ZNSt3__116reverse_iteratorIPNS_10shared_ptrI5ScopeEEEC2B7v160006ES4_, symObjAddr: 0x4C1C, symBinAddr: 0x10001C9A8, symSize: 0x28 }
  - { offsetInCU: 0xE624, offset: 0x4506D, size: 0x8, addend: 0x0, symName: __ZNSt3__114__split_bufferINS_10shared_ptrI5ScopeEERNS_9allocatorIS3_EEED2Ev, symObjAddr: 0x4C44, symBinAddr: 0x10001C9D0, symSize: 0x8C }
  - { offsetInCU: 0xE650, offset: 0x45099, size: 0x8, addend: 0x0, symName: __ZNSt3__114__split_bufferINS_10shared_ptrI5ScopeEERNS_9allocatorIS3_EEE5clearB7v160006Ev, symObjAddr: 0x4CD0, symBinAddr: 0x10001CA5C, symSize: 0x28 }
  - { offsetInCU: 0xE676, offset: 0x450BF, size: 0x8, addend: 0x0, symName: __ZNKSt3__114__split_bufferINS_10shared_ptrI5ScopeEERNS_9allocatorIS3_EEE8capacityB7v160006Ev, symObjAddr: 0x4CF8, symBinAddr: 0x10001CA84, symSize: 0x40 }
  - { offsetInCU: 0xE69C, offset: 0x450E5, size: 0x8, addend: 0x0, symName: __ZNSt3__114__split_bufferINS_10shared_ptrI5ScopeEERNS_9allocatorIS3_EEE17__destruct_at_endB7v160006EPS3_, symObjAddr: 0x4D38, symBinAddr: 0x10001CAC4, symSize: 0x2C }
  - { offsetInCU: 0xE6D0, offset: 0x45119, size: 0x8, addend: 0x0, symName: __ZNSt3__114__split_bufferINS_10shared_ptrI5ScopeEERNS_9allocatorIS3_EEE17__destruct_at_endB7v160006EPS3_NS_17integral_constantIbLb0EEE, symObjAddr: 0x4D64, symBinAddr: 0x10001CAF0, symSize: 0x80 }
  - { offsetInCU: 0xE711, offset: 0x4515A, size: 0x8, addend: 0x0, symName: __ZNKSt3__114__split_bufferINS_10shared_ptrI5ScopeEERNS_9allocatorIS3_EEE9__end_capB7v160006Ev, symObjAddr: 0x4DE4, symBinAddr: 0x10001CB70, symSize: 0x28 }
  - { offsetInCU: 0xE737, offset: 0x45180, size: 0x8, addend: 0x0, symName: __ZNKSt3__117__compressed_pairIPNS_10shared_ptrI5ScopeEERNS_9allocatorIS3_EEE5firstB7v160006Ev, symObjAddr: 0x4E0C, symBinAddr: 0x10001CB98, symSize: 0x24 }
  - { offsetInCU: 0xE75D, offset: 0x451A6, size: 0x8, addend: 0x0, symName: __ZNSt3__110shared_ptrI5ScopeE4swapB7v160006ERS2_, symObjAddr: 0x4E30, symBinAddr: 0x10001CBBC, symSize: 0x44 }
  - { offsetInCU: 0xE792, offset: 0x451DB, size: 0x8, addend: 0x0, symName: __ZNK5Scope7getNameEv, symObjAddr: 0x4FB0, symBinAddr: 0x10001CC00, symSize: 0x3C }
  - { offsetInCU: 0xE7B8, offset: 0x45201, size: 0x8, addend: 0x0, symName: __ZN5Scope9addRecordERKNSt3__112basic_stringIcNS0_11char_traitsIcEENS0_9allocatorIcEEEENS0_10shared_ptrI6RecordEE, symObjAddr: 0x4FEC, symBinAddr: 0x10001CC3C, symSize: 0x40 }
  - { offsetInCU: 0xE7FB, offset: 0x45244, size: 0x8, addend: 0x0, symName: __ZNSt3__110shared_ptrI6RecordEC1B7v160006ERKS2_, symObjAddr: 0x502C, symBinAddr: 0x10001CC7C, symSize: 0x34 }
  - { offsetInCU: 0xE834, offset: 0x4527D, size: 0x8, addend: 0x0, symName: __ZNSt3__13mapINS_12basic_stringIcNS_11char_traitsIcEENS_9allocatorIcEEEENS_10shared_ptrI6RecordEENS_4lessIS6_EENS4_INS_4pairIKS6_S9_EEEEEixERSD_, symObjAddr: 0x5060, symBinAddr: 0x10001CCB0, symSize: 0x80 }
  - { offsetInCU: 0xE86B, offset: 0x452B4, size: 0x8, addend: 0x0, symName: __ZNSt3__110shared_ptrI6RecordEaSB7v160006ERKS2_, symObjAddr: 0x50E0, symBinAddr: 0x10001CD30, symSize: 0x50 }
  - { offsetInCU: 0xE8B4, offset: 0x452FD, size: 0x8, addend: 0x0, symName: __ZNSt3__16__treeINS_12__value_typeINS_12basic_stringIcNS_11char_traitsIcEENS_9allocatorIcEEEENS_10shared_ptrI6RecordEEEENS_19__map_value_compareIS7_SB_NS_4lessIS7_EELb1EEENS5_ISB_EEE25__emplace_unique_key_argsIS7_JRKNS_21piecewise_construct_tENS_5tupleIJRKS7_EEENSM_IJEEEEEENS_4pairINS_15__tree_iteratorISB_PNS_11__tree_nodeISB_PvEElEEbEERKT_DpOT0_, symObjAddr: 0x5130, symBinAddr: 0x10001CD80, symSize: 0x100 }
  - { offsetInCU: 0xE98B, offset: 0x453D4, size: 0x8, addend: 0x0, symName: __ZNKSt3__115__tree_iteratorINS_12__value_typeINS_12basic_stringIcNS_11char_traitsIcEENS_9allocatorIcEEEENS_10shared_ptrI6RecordEEEEPNS_11__tree_nodeISB_PvEElEptB7v160006Ev, symObjAddr: 0x5260, symBinAddr: 0x10001CEB0, symSize: 0x2C }
  - { offsetInCU: 0xE9B1, offset: 0x453FA, size: 0x8, addend: 0x0, symName: __ZNSt3__16__treeINS_12__value_typeINS_12basic_stringIcNS_11char_traitsIcEENS_9allocatorIcEEEENS_10shared_ptrI6RecordEEEENS_19__map_value_compareIS7_SB_NS_4lessIS7_EELb1EEENS5_ISB_EEE12__find_equalIS7_EERPNS_16__tree_node_baseIPvEERPNS_15__tree_end_nodeISM_EERKT_, symObjAddr: 0x528C, symBinAddr: 0x10001CEDC, symSize: 0x184 }
  - { offsetInCU: 0xEA1E, offset: 0x45467, size: 0x8, addend: 0x0, symName: __ZNSt3__16__treeINS_12__value_typeINS_12basic_stringIcNS_11char_traitsIcEENS_9allocatorIcEEEENS_10shared_ptrI6RecordEEEENS_19__map_value_compareIS7_SB_NS_4lessIS7_EELb1EEENS5_ISB_EEE16__construct_nodeIJRKNS_21piecewise_construct_tENS_5tupleIJRKS7_EEENSM_IJEEEEEENS_10unique_ptrINS_11__tree_nodeISB_PvEENS_22__tree_node_destructorINS5_ISU_EEEEEEDpOT_, symObjAddr: 0x5410, symBinAddr: 0x10001D060, symSize: 0x120 }
  - { offsetInCU: 0xEAA7, offset: 0x454F0, size: 0x8, addend: 0x0, symName: __ZNSt3__16__treeINS_12__value_typeINS_12basic_stringIcNS_11char_traitsIcEENS_9allocatorIcEEEENS_10shared_ptrI6RecordEEEENS_19__map_value_compareIS7_SB_NS_4lessIS7_EELb1EEENS5_ISB_EEE16__insert_node_atEPNS_15__tree_end_nodeIPNS_16__tree_node_baseIPvEEEERSM_SM_, symObjAddr: 0x5530, symBinAddr: 0x10001D180, symSize: 0xCC }
  - { offsetInCU: 0xEAFC, offset: 0x45545, size: 0x8, addend: 0x0, symName: __ZNKSt3__110unique_ptrINS_11__tree_nodeINS_12__value_typeINS_12basic_stringIcNS_11char_traitsIcEENS_9allocatorIcEEEENS_10shared_ptrI6RecordEEEEPvEENS_22__tree_node_destructorINS6_ISE_EEEEE3getB7v160006Ev, symObjAddr: 0x55FC, symBinAddr: 0x10001D24C, symSize: 0x28 }
  - { offsetInCU: 0xEB22, offset: 0x4556B, size: 0x8, addend: 0x0, symName: __ZNSt3__110unique_ptrINS_11__tree_nodeINS_12__value_typeINS_12basic_stringIcNS_11char_traitsIcEENS_9allocatorIcEEEENS_10shared_ptrI6RecordEEEEPvEENS_22__tree_node_destructorINS6_ISE_EEEEE7releaseB7v160006Ev, symObjAddr: 0x5624, symBinAddr: 0x10001D274, symSize: 0x44 }
  - { offsetInCU: 0xEB57, offset: 0x455A0, size: 0x8, addend: 0x0, symName: __ZNSt3__110unique_ptrINS_11__tree_nodeINS_12__value_typeINS_12basic_stringIcNS_11char_traitsIcEENS_9allocatorIcEEEENS_10shared_ptrI6RecordEEEEPvEENS_22__tree_node_destructorINS6_ISE_EEEEED1B7v160006Ev, symObjAddr: 0x5668, symBinAddr: 0x10001D2B8, symSize: 0x2C }
  - { offsetInCU: 0xEB81, offset: 0x455CA, size: 0x8, addend: 0x0, symName: __ZNSt3__115__tree_iteratorINS_12__value_typeINS_12basic_stringIcNS_11char_traitsIcEENS_9allocatorIcEEEENS_10shared_ptrI6RecordEEEEPNS_11__tree_nodeISB_PvEElEC1B7v160006ESF_, symObjAddr: 0x5694, symBinAddr: 0x10001D2E4, symSize: 0x34 }
  - { offsetInCU: 0xEBC4, offset: 0x4560D, size: 0x8, addend: 0x0, symName: __ZNSt3__14pairINS_15__tree_iteratorINS_12__value_typeINS_12basic_stringIcNS_11char_traitsIcEENS_9allocatorIcEEEENS_10shared_ptrI6RecordEEEEPNS_11__tree_nodeISC_PvEElEEbEC1B7v160006ISH_RbLSE_0EEEOT_OT0_, symObjAddr: 0x56C8, symBinAddr: 0x10001D318, symSize: 0x3C }
  - { offsetInCU: 0xEC22, offset: 0x4566B, size: 0x8, addend: 0x0, symName: __ZNKSt3__16__treeINS_12__value_typeINS_12basic_stringIcNS_11char_traitsIcEENS_9allocatorIcEEEENS_10shared_ptrI6RecordEEEENS_19__map_value_compareIS7_SB_NS_4lessIS7_EELb1EEENS5_ISB_EEE10__root_ptrEv, symObjAddr: 0x5704, symBinAddr: 0x10001D354, symSize: 0x24 }
  - { offsetInCU: 0xEC48, offset: 0x45691, size: 0x8, addend: 0x0, symName: __ZNSt3__16__treeINS_12__value_typeINS_12basic_stringIcNS_11char_traitsIcEENS_9allocatorIcEEEENS_10shared_ptrI6RecordEEEENS_19__map_value_compareIS7_SB_NS_4lessIS7_EELb1EEENS5_ISB_EEE10value_compB7v160006Ev, symObjAddr: 0x5728, symBinAddr: 0x10001D378, symSize: 0x28 }
  - { offsetInCU: 0xEC6E, offset: 0x456B7, size: 0x8, addend: 0x0, symName: __ZNKSt3__119__map_value_compareINS_12basic_stringIcNS_11char_traitsIcEENS_9allocatorIcEEEENS_12__value_typeIS6_NS_10shared_ptrI6RecordEEEENS_4lessIS6_EELb1EEclB7v160006ERKS6_RKSB_, symObjAddr: 0x5750, symBinAddr: 0x10001D3A0, symSize: 0x50 }
  - { offsetInCU: 0xECB2, offset: 0x456FB, size: 0x8, addend: 0x0, symName: __ZNKSt3__119__map_value_compareINS_12basic_stringIcNS_11char_traitsIcEENS_9allocatorIcEEEENS_12__value_typeIS6_NS_10shared_ptrI6RecordEEEENS_4lessIS6_EELb1EEclB7v160006ERKSB_RKS6_, symObjAddr: 0x57A0, symBinAddr: 0x10001D3F0, symSize: 0x48 }
  - { offsetInCU: 0xECF6, offset: 0x4573F, size: 0x8, addend: 0x0, symName: __ZNSt3__117__compressed_pairImNS_19__map_value_compareINS_12basic_stringIcNS_11char_traitsIcEENS_9allocatorIcEEEENS_12__value_typeIS7_NS_10shared_ptrI6RecordEEEENS_4lessIS7_EELb1EEEE6secondB7v160006Ev, symObjAddr: 0x57E8, symBinAddr: 0x10001D438, symSize: 0x24 }
  - { offsetInCU: 0xED1C, offset: 0x45765, size: 0x8, addend: 0x0, symName: __ZNSt3__122__compressed_pair_elemINS_19__map_value_compareINS_12basic_stringIcNS_11char_traitsIcEENS_9allocatorIcEEEENS_12__value_typeIS7_NS_10shared_ptrI6RecordEEEENS_4lessIS7_EELb1EEELi1ELb1EE5__getB7v160006Ev, symObjAddr: 0x580C, symBinAddr: 0x10001D45C, symSize: 0x14 }
  - { offsetInCU: 0xED42, offset: 0x4578B, size: 0x8, addend: 0x0, symName: __ZNKSt3__14lessINS_12basic_stringIcNS_11char_traitsIcEENS_9allocatorIcEEEEEclB7v160006ERKS6_S9_, symObjAddr: 0x5820, symBinAddr: 0x10001D470, symSize: 0x34 }
  - { offsetInCU: 0xED86, offset: 0x457CF, size: 0x8, addend: 0x0, symName: __ZNKSt3__112basic_stringIcNS_11char_traitsIcEENS_9allocatorIcEEE7compareB7v160006ERKS5_, symObjAddr: 0x58A0, symBinAddr: 0x10001D4DC, symSize: 0x4C }
  - { offsetInCU: 0xEDBD, offset: 0x45806, size: 0x8, addend: 0x0, symName: __ZNKSt3__112basic_stringIcNS_11char_traitsIcEENS_9allocatorIcEEE7compareINS_17basic_string_viewIcS2_EEEENS_9enable_ifIXsr33__can_be_converted_to_string_viewIcS2_T_EE5valueEiE4typeERKSA_, symObjAddr: 0x58EC, symBinAddr: 0x10001D528, symSize: 0x12C }
  - { offsetInCU: 0xEE3A, offset: 0x45883, size: 0x8, addend: 0x0, symName: __ZNKSt3__112basic_stringIcNS_11char_traitsIcEENS_9allocatorIcEEEcvNS_17basic_string_viewIcS2_EEB7v160006Ev, symObjAddr: 0x5A18, symBinAddr: 0x10001D654, symSize: 0x50 }
  - { offsetInCU: 0xEE60, offset: 0x458A9, size: 0x8, addend: 0x0, symName: __ZNKSt3__117basic_string_viewIcNS_11char_traitsIcEEE4sizeB7v160006Ev, symObjAddr: 0x5ABC, symBinAddr: 0x10001D6A4, symSize: 0x18 }
  - { offsetInCU: 0xEE86, offset: 0x458CF, size: 0x8, addend: 0x0, symName: __ZNSt3__111char_traitsIcE7compareEPKcS3_m, symObjAddr: 0x5AD4, symBinAddr: 0x10001D6BC, symSize: 0x6C }
  - { offsetInCU: 0xEEC5, offset: 0x4590E, size: 0x8, addend: 0x0, symName: __ZNKSt3__117basic_string_viewIcNS_11char_traitsIcEEE4dataB7v160006Ev, symObjAddr: 0x5B68, symBinAddr: 0x10001D728, symSize: 0x18 }
  - { offsetInCU: 0xEEEB, offset: 0x45934, size: 0x8, addend: 0x0, symName: __ZNSt3__117basic_string_viewIcNS_11char_traitsIcEEEC1B7v160006EPKcm, symObjAddr: 0x5D4C, symBinAddr: 0x10001D774, symSize: 0x3C }
  - { offsetInCU: 0xEF33, offset: 0x4597C, size: 0x8, addend: 0x0, symName: __ZNSt3__117basic_string_viewIcNS_11char_traitsIcEEEC2B7v160006EPKcm, symObjAddr: 0x5D88, symBinAddr: 0x10001D7B0, symSize: 0x50 }
  - { offsetInCU: 0xEF7B, offset: 0x459C4, size: 0x8, addend: 0x0, symName: __ZNSt3__116allocator_traitsINS_9allocatorINS_11__tree_nodeINS_12__value_typeINS_12basic_stringIcNS_11char_traitsIcEENS1_IcEEEENS_10shared_ptrI6RecordEEEEPvEEEEE8allocateB7v160006ERSF_m, symObjAddr: 0x5DD8, symBinAddr: 0x10001D800, symSize: 0x2C }
  - { offsetInCU: 0xEFAE, offset: 0x459F7, size: 0x8, addend: 0x0, symName: __ZNSt3__122__tree_node_destructorINS_9allocatorINS_11__tree_nodeINS_12__value_typeINS_12basic_stringIcNS_11char_traitsIcEENS1_IcEEEENS_10shared_ptrI6RecordEEEEPvEEEEEC1B7v160006ERSF_b, symObjAddr: 0x5E04, symBinAddr: 0x10001D82C, symSize: 0x48 }
  - { offsetInCU: 0xEFFB, offset: 0x45A44, size: 0x8, addend: 0x0, symName: __ZNSt3__110unique_ptrINS_11__tree_nodeINS_12__value_typeINS_12basic_stringIcNS_11char_traitsIcEENS_9allocatorIcEEEENS_10shared_ptrI6RecordEEEEPvEENS_22__tree_node_destructorINS6_ISE_EEEEEC1B7v160006ILb1EvEEPSE_NS_16__dependent_typeINS_27__unique_ptr_deleter_sfinaeISH_EEXT_EE20__good_rval_ref_typeE, symObjAddr: 0x5E4C, symBinAddr: 0x10001D874, symSize: 0x3C }
  - { offsetInCU: 0xF04C, offset: 0x45A95, size: 0x8, addend: 0x0, symName: __ZNSt3__116allocator_traitsINS_9allocatorINS_11__tree_nodeINS_12__value_typeINS_12basic_stringIcNS_11char_traitsIcEENS1_IcEEEENS_10shared_ptrI6RecordEEEEPvEEEEE9constructB7v160006INS_4pairIKS8_SB_EEJRKNS_21piecewise_construct_tENS_5tupleIJRSJ_EEENSO_IJEEEEvEEvRSF_PT_DpOT0_, symObjAddr: 0x5E88, symBinAddr: 0x10001D8B0, symSize: 0x44 }
  - { offsetInCU: 0xF0CB, offset: 0x45B14, size: 0x8, addend: 0x0, symName: __ZNKSt3__110unique_ptrINS_11__tree_nodeINS_12__value_typeINS_12basic_stringIcNS_11char_traitsIcEENS_9allocatorIcEEEENS_10shared_ptrI6RecordEEEEPvEENS_22__tree_node_destructorINS6_ISE_EEEEEptB7v160006Ev, symObjAddr: 0x5ECC, symBinAddr: 0x10001D8F4, symSize: 0x28 }
  - { offsetInCU: 0xF0F1, offset: 0x45B3A, size: 0x8, addend: 0x0, symName: __ZNSt3__110unique_ptrINS_11__tree_nodeINS_12__value_typeINS_12basic_stringIcNS_11char_traitsIcEENS_9allocatorIcEEEENS_10shared_ptrI6RecordEEEEPvEENS_22__tree_node_destructorINS6_ISE_EEEEE11get_deleterB7v160006Ev, symObjAddr: 0x5EF4, symBinAddr: 0x10001D91C, symSize: 0x24 }
  - { offsetInCU: 0xF117, offset: 0x45B60, size: 0x8, addend: 0x0, symName: __ZNSt3__19allocatorINS_11__tree_nodeINS_12__value_typeINS_12basic_stringIcNS_11char_traitsIcEENS0_IcEEEENS_10shared_ptrI6RecordEEEEPvEEE8allocateB7v160006Em, symObjAddr: 0x5F18, symBinAddr: 0x10001D940, symSize: 0x5C }
  - { offsetInCU: 0xF155, offset: 0x45B9E, size: 0x8, addend: 0x0, symName: __ZNSt3__116allocator_traitsINS_9allocatorINS_11__tree_nodeINS_12__value_typeINS_12basic_stringIcNS_11char_traitsIcEENS1_IcEEEENS_10shared_ptrI6RecordEEEEPvEEEEE8max_sizeB7v160006ISF_vEEmRKSF_, symObjAddr: 0x5F74, symBinAddr: 0x10001D99C, symSize: 0x24 }
  - { offsetInCU: 0xF183, offset: 0x45BCC, size: 0x8, addend: 0x0, symName: __ZNKSt3__19allocatorINS_11__tree_nodeINS_12__value_typeINS_12basic_stringIcNS_11char_traitsIcEENS0_IcEEEENS_10shared_ptrI6RecordEEEEPvEEE8max_sizeB7v160006Ev, symObjAddr: 0x5F98, symBinAddr: 0x10001D9C0, symSize: 0x20 }
  - { offsetInCU: 0xF1A9, offset: 0x45BF2, size: 0x8, addend: 0x0, symName: __ZNSt3__122__tree_node_destructorINS_9allocatorINS_11__tree_nodeINS_12__value_typeINS_12basic_stringIcNS_11char_traitsIcEENS1_IcEEEENS_10shared_ptrI6RecordEEEEPvEEEEEC2B7v160006ERSF_b, symObjAddr: 0x5FB8, symBinAddr: 0x10001D9E0, symSize: 0x38 }
  - { offsetInCU: 0xF1F1, offset: 0x45C3A, size: 0x8, addend: 0x0, symName: __ZNSt3__110unique_ptrINS_11__tree_nodeINS_12__value_typeINS_12basic_stringIcNS_11char_traitsIcEENS_9allocatorIcEEEENS_10shared_ptrI6RecordEEEEPvEENS_22__tree_node_destructorINS6_ISE_EEEEEC2B7v160006ILb1EvEEPSE_NS_16__dependent_typeINS_27__unique_ptr_deleter_sfinaeISH_EEXT_EE20__good_rval_ref_typeE, symObjAddr: 0x5FF0, symBinAddr: 0x10001DA18, symSize: 0x48 }
  - { offsetInCU: 0xF242, offset: 0x45C8B, size: 0x8, addend: 0x0, symName: __ZNSt3__117__compressed_pairIPNS_11__tree_nodeINS_12__value_typeINS_12basic_stringIcNS_11char_traitsIcEENS_9allocatorIcEEEENS_10shared_ptrI6RecordEEEEPvEENS_22__tree_node_destructorINS6_ISE_EEEEEC1B7v160006IRSF_SI_EEOT_OT0_, symObjAddr: 0x6038, symBinAddr: 0x10001DA60, symSize: 0x3C }
  - { offsetInCU: 0xF29A, offset: 0x45CE3, size: 0x8, addend: 0x0, symName: __ZNSt3__117__compressed_pairIPNS_11__tree_nodeINS_12__value_typeINS_12basic_stringIcNS_11char_traitsIcEENS_9allocatorIcEEEENS_10shared_ptrI6RecordEEEEPvEENS_22__tree_node_destructorINS6_ISE_EEEEEC2B7v160006IRSF_SI_EEOT_OT0_, symObjAddr: 0x6074, symBinAddr: 0x10001DA9C, symSize: 0x48 }
  - { offsetInCU: 0xF2F2, offset: 0x45D3B, size: 0x8, addend: 0x0, symName: __ZNSt3__122__compressed_pair_elemIPNS_11__tree_nodeINS_12__value_typeINS_12basic_stringIcNS_11char_traitsIcEENS_9allocatorIcEEEENS_10shared_ptrI6RecordEEEEPvEELi0ELb0EEC2B7v160006IRSF_vEEOT_, symObjAddr: 0x60BC, symBinAddr: 0x10001DAE4, symSize: 0x24 }
  - { offsetInCU: 0xF334, offset: 0x45D7D, size: 0x8, addend: 0x0, symName: __ZNSt3__122__compressed_pair_elemINS_22__tree_node_destructorINS_9allocatorINS_11__tree_nodeINS_12__value_typeINS_12basic_stringIcNS_11char_traitsIcEENS2_IcEEEENS_10shared_ptrI6RecordEEEEPvEEEEEELi1ELb0EEC2B7v160006ISH_vEEOT_, symObjAddr: 0x60E0, symBinAddr: 0x10001DB08, symSize: 0x24 }
  - { offsetInCU: 0xF376, offset: 0x45DBF, size: 0x8, addend: 0x0, symName: __ZNSt3__19allocatorINS_11__tree_nodeINS_12__value_typeINS_12basic_stringIcNS_11char_traitsIcEENS0_IcEEEENS_10shared_ptrI6RecordEEEEPvEEE9constructB7v160006INS_4pairIKS7_SA_EEJRKNS_21piecewise_construct_tENS_5tupleIJRSH_EEENSM_IJEEEEEEvPT_DpOT0_, symObjAddr: 0x6104, symBinAddr: 0x10001DB2C, symSize: 0x44 }
  - { offsetInCU: 0xF3F2, offset: 0x45E3B, size: 0x8, addend: 0x0, symName: __ZNSt3__14pairIKNS_12basic_stringIcNS_11char_traitsIcEENS_9allocatorIcEEEENS_10shared_ptrI6RecordEEEC1B7v160006IJRS7_EJEEENS_21piecewise_construct_tENS_5tupleIJDpT_EEENSF_IJDpT0_EEE, symObjAddr: 0x6148, symBinAddr: 0x10001DB70, symSize: 0x3C }
  - { offsetInCU: 0xF459, offset: 0x45EA2, size: 0x8, addend: 0x0, symName: __ZNSt3__14pairIKNS_12basic_stringIcNS_11char_traitsIcEENS_9allocatorIcEEEENS_10shared_ptrI6RecordEEEC1B7v160006IJRS7_EJEJLm0EEJEEENS_21piecewise_construct_tERNS_5tupleIJDpT_EEERNSF_IJDpT0_EEENS_15__tuple_indicesIJXspT1_EEEENSO_IJXspT2_EEEE, symObjAddr: 0x6184, symBinAddr: 0x10001DBAC, symSize: 0x3C }
  - { offsetInCU: 0xF4E9, offset: 0x45F32, size: 0x8, addend: 0x0, symName: __ZNSt3__14pairIKNS_12basic_stringIcNS_11char_traitsIcEENS_9allocatorIcEEEENS_10shared_ptrI6RecordEEEC2B7v160006IJRS7_EJEJLm0EEJEEENS_21piecewise_construct_tERNS_5tupleIJDpT_EEERNSF_IJDpT0_EEENS_15__tuple_indicesIJXspT1_EEEENSO_IJXspT2_EEEE, symObjAddr: 0x61C0, symBinAddr: 0x10001DBE8, symSize: 0x50 }
  - { offsetInCU: 0xF579, offset: 0x45FC2, size: 0x8, addend: 0x0, symName: __ZNSt3__110shared_ptrI6RecordEC1B7v160006Ev, symObjAddr: 0x6234, symBinAddr: 0x10001DC5C, symSize: 0x2C }
  - { offsetInCU: 0xF5A3, offset: 0x45FEC, size: 0x8, addend: 0x0, symName: __ZNSt3__112__tuple_leafILm0ERKNS_12basic_stringIcNS_11char_traitsIcEENS_9allocatorIcEEEELb0EE3getB7v160006Ev, symObjAddr: 0x6260, symBinAddr: 0x10001DC88, symSize: 0x18 }
  - { offsetInCU: 0xF5C9, offset: 0x46012, size: 0x8, addend: 0x0, symName: __ZNSt3__110shared_ptrI6RecordEC2B7v160006Ev, symObjAddr: 0x6278, symBinAddr: 0x10001DCA0, symSize: 0x1C }
  - { offsetInCU: 0xF5F3, offset: 0x4603C, size: 0x8, addend: 0x0, symName: __ZNKSt3__117__compressed_pairIPNS_11__tree_nodeINS_12__value_typeINS_12basic_stringIcNS_11char_traitsIcEENS_9allocatorIcEEEENS_10shared_ptrI6RecordEEEEPvEENS_22__tree_node_destructorINS6_ISE_EEEEE5firstB7v160006Ev, symObjAddr: 0x6294, symBinAddr: 0x10001DCBC, symSize: 0x24 }
  - { offsetInCU: 0xF619, offset: 0x46062, size: 0x8, addend: 0x0, symName: __ZNKSt3__122__compressed_pair_elemIPNS_11__tree_nodeINS_12__value_typeINS_12basic_stringIcNS_11char_traitsIcEENS_9allocatorIcEEEENS_10shared_ptrI6RecordEEEEPvEELi0ELb0EE5__getB7v160006Ev, symObjAddr: 0x62B8, symBinAddr: 0x10001DCE0, symSize: 0x14 }
  - { offsetInCU: 0xF63F, offset: 0x46088, size: 0x8, addend: 0x0, symName: __ZNSt3__117__compressed_pairIPNS_11__tree_nodeINS_12__value_typeINS_12basic_stringIcNS_11char_traitsIcEENS_9allocatorIcEEEENS_10shared_ptrI6RecordEEEEPvEENS_22__tree_node_destructorINS6_ISE_EEEEE6secondB7v160006Ev, symObjAddr: 0x62CC, symBinAddr: 0x10001DCF4, symSize: 0x28 }
  - { offsetInCU: 0xF665, offset: 0x460AE, size: 0x8, addend: 0x0, symName: __ZNSt3__122__compressed_pair_elemINS_22__tree_node_destructorINS_9allocatorINS_11__tree_nodeINS_12__value_typeINS_12basic_stringIcNS_11char_traitsIcEENS2_IcEEEENS_10shared_ptrI6RecordEEEEPvEEEEEELi1ELb0EE5__getB7v160006Ev, symObjAddr: 0x62F4, symBinAddr: 0x10001DD1C, symSize: 0x14 }
  - { offsetInCU: 0xF68B, offset: 0x460D4, size: 0x8, addend: 0x0, symName: __ZNSt3__16__treeINS_12__value_typeINS_12basic_stringIcNS_11char_traitsIcEENS_9allocatorIcEEEENS_10shared_ptrI6RecordEEEENS_19__map_value_compareIS7_SB_NS_4lessIS7_EELb1EEENS5_ISB_EEE4sizeB7v160006Ev, symObjAddr: 0x6634, symBinAddr: 0x10001E05C, symSize: 0x28 }
  - { offsetInCU: 0xF6B1, offset: 0x460FA, size: 0x8, addend: 0x0, symName: __ZNSt3__116__tree_node_baseIPvE12__set_parentB7v160006EPS2_, symObjAddr: 0x6844, symBinAddr: 0x10001E228, symSize: 0x20 }
  - { offsetInCU: 0xF6E6, offset: 0x4612F, size: 0x8, addend: 0x0, symName: __ZNSt3__117__compressed_pairImNS_19__map_value_compareINS_12basic_stringIcNS_11char_traitsIcEENS_9allocatorIcEEEENS_12__value_typeIS7_NS_10shared_ptrI6RecordEEEENS_4lessIS7_EELb1EEEE5firstB7v160006Ev, symObjAddr: 0x6864, symBinAddr: 0x10001E248, symSize: 0x24 }
  - { offsetInCU: 0xF70C, offset: 0x46155, size: 0x8, addend: 0x0, symName: __ZNSt3__117__compressed_pairIPNS_11__tree_nodeINS_12__value_typeINS_12basic_stringIcNS_11char_traitsIcEENS_9allocatorIcEEEENS_10shared_ptrI6RecordEEEEPvEENS_22__tree_node_destructorINS6_ISE_EEEEE5firstB7v160006Ev, symObjAddr: 0x689C, symBinAddr: 0x10001E26C, symSize: 0x24 }
  - { offsetInCU: 0xF732, offset: 0x4617B, size: 0x8, addend: 0x0, symName: __ZNSt3__122__compressed_pair_elemIPNS_11__tree_nodeINS_12__value_typeINS_12basic_stringIcNS_11char_traitsIcEENS_9allocatorIcEEEENS_10shared_ptrI6RecordEEEEPvEELi0ELb0EE5__getB7v160006Ev, symObjAddr: 0x68C0, symBinAddr: 0x10001E290, symSize: 0x14 }
  - { offsetInCU: 0xF758, offset: 0x461A1, size: 0x8, addend: 0x0, symName: __ZNSt3__110unique_ptrINS_11__tree_nodeINS_12__value_typeINS_12basic_stringIcNS_11char_traitsIcEENS_9allocatorIcEEEENS_10shared_ptrI6RecordEEEEPvEENS_22__tree_node_destructorINS6_ISE_EEEEED2B7v160006Ev, symObjAddr: 0x68D4, symBinAddr: 0x10001E2A4, symSize: 0x30 }
  - { offsetInCU: 0xF782, offset: 0x461CB, size: 0x8, addend: 0x0, symName: __ZNSt3__110unique_ptrINS_11__tree_nodeINS_12__value_typeINS_12basic_stringIcNS_11char_traitsIcEENS_9allocatorIcEEEENS_10shared_ptrI6RecordEEEEPvEENS_22__tree_node_destructorINS6_ISE_EEEEE5resetB7v160006EPSE_, symObjAddr: 0x6904, symBinAddr: 0x10001E2D4, symSize: 0x78 }
  - { offsetInCU: 0xF7C6, offset: 0x4620F, size: 0x8, addend: 0x0, symName: __ZNSt3__122__tree_node_destructorINS_9allocatorINS_11__tree_nodeINS_12__value_typeINS_12basic_stringIcNS_11char_traitsIcEENS1_IcEEEENS_10shared_ptrI6RecordEEEEPvEEEEEclB7v160006EPSE_, symObjAddr: 0x697C, symBinAddr: 0x10001E34C, symSize: 0x94 }
  - { offsetInCU: 0xF7FB, offset: 0x46244, size: 0x8, addend: 0x0, symName: __ZNSt3__115__tree_iteratorINS_12__value_typeINS_12basic_stringIcNS_11char_traitsIcEENS_9allocatorIcEEEENS_10shared_ptrI6RecordEEEEPNS_11__tree_nodeISB_PvEElEC2B7v160006ESF_, symObjAddr: 0x6A10, symBinAddr: 0x10001E3E0, symSize: 0x20 }
  - { offsetInCU: 0xF834, offset: 0x4627D, size: 0x8, addend: 0x0, symName: __ZNSt3__14pairINS_15__tree_iteratorINS_12__value_typeINS_12basic_stringIcNS_11char_traitsIcEENS_9allocatorIcEEEENS_10shared_ptrI6RecordEEEEPNS_11__tree_nodeISC_PvEElEEbEC2B7v160006ISH_RbLSE_0EEEOT_OT0_, symObjAddr: 0x6A30, symBinAddr: 0x10001E400, symSize: 0x38 }
  - { offsetInCU: 0xF892, offset: 0x462DB, size: 0x8, addend: 0x0, symName: __ZNSt3__15tupleIJRKNS_12basic_stringIcNS_11char_traitsIcEENS_9allocatorIcEEEEEEC1B7v160006INS_4_AndELi0EEES8_, symObjAddr: 0x6A68, symBinAddr: 0x10001E438, symSize: 0x34 }
  - { offsetInCU: 0xF8DB, offset: 0x46324, size: 0x8, addend: 0x0, symName: __ZNSt3__15tupleIJRKNS_12basic_stringIcNS_11char_traitsIcEENS_9allocatorIcEEEEEEC2B7v160006INS_4_AndELi0EEES8_, symObjAddr: 0x6A9C, symBinAddr: 0x10001E46C, symSize: 0x34 }
  - { offsetInCU: 0xF924, offset: 0x4636D, size: 0x8, addend: 0x0, symName: __ZNSt3__112__tuple_implINS_15__tuple_indicesIJLm0EEEEJRKNS_12basic_stringIcNS_11char_traitsIcEENS_9allocatorIcEEEEEEC1B7v160006IJLm0EEJSA_EJEJEJSA_EEENS1_IJXspT_EEEENS_13__tuple_typesIJDpT0_EEENS1_IJXspT1_EEEENSE_IJDpT2_EEEDpOT3_, symObjAddr: 0x6AD0, symBinAddr: 0x10001E4A0, symSize: 0x34 }
  - { offsetInCU: 0xF9B9, offset: 0x46402, size: 0x8, addend: 0x0, symName: __ZNSt3__112__tuple_implINS_15__tuple_indicesIJLm0EEEEJRKNS_12basic_stringIcNS_11char_traitsIcEENS_9allocatorIcEEEEEEC2B7v160006IJLm0EEJSA_EJEJEJSA_EEENS1_IJXspT_EEEENS_13__tuple_typesIJDpT0_EEENS1_IJXspT1_EEEENSE_IJDpT2_EEEDpOT3_, symObjAddr: 0x6B04, symBinAddr: 0x10001E4D4, symSize: 0x34 }
  - { offsetInCU: 0xFA4E, offset: 0x46497, size: 0x8, addend: 0x0, symName: __ZNSt3__112__tuple_leafILm0ERKNS_12basic_stringIcNS_11char_traitsIcEENS_9allocatorIcEEEELb0EEC2B7v160006IS8_vEEOT_, symObjAddr: 0x6B38, symBinAddr: 0x10001E508, symSize: 0x20 }
  - { offsetInCU: 0xFA91, offset: 0x464DA, size: 0x8, addend: 0x0, symName: __ZNSt3__114pointer_traitsIPNS_12__value_typeINS_12basic_stringIcNS_11char_traitsIcEENS_9allocatorIcEEEENS_10shared_ptrI6RecordEEEEE10pointer_toB7v160006ERSB_, symObjAddr: 0x6B58, symBinAddr: 0x10001E528, symSize: 0x14 }
  - { offsetInCU: 0xFAB4, offset: 0x464FD, size: 0x8, addend: 0x0, symName: __ZNKSt3__115__tree_iteratorINS_12__value_typeINS_12basic_stringIcNS_11char_traitsIcEENS_9allocatorIcEEEENS_10shared_ptrI6RecordEEEEPNS_11__tree_nodeISB_PvEElE8__get_npB7v160006Ev, symObjAddr: 0x6B6C, symBinAddr: 0x10001E53C, symSize: 0x18 }
  - { offsetInCU: 0xFADA, offset: 0x46523, size: 0x8, addend: 0x0, symName: __ZNSt3__110shared_ptrI6RecordE4swapB7v160006ERS2_, symObjAddr: 0x6B84, symBinAddr: 0x10001E554, symSize: 0x44 }
  - { offsetInCU: 0xFB0F, offset: 0x46558, size: 0x8, addend: 0x0, symName: __ZNSt3__110shared_ptrI6RecordEC2B7v160006ERKS2_, symObjAddr: 0x6C04, symBinAddr: 0x10001E5D4, symSize: 0x70 }
  - { offsetInCU: 0xFB48, offset: 0x46591, size: 0x8, addend: 0x0, symName: __ZNK5Scope9getParentEv, symObjAddr: 0x6C74, symBinAddr: 0x10001E644, symSize: 0x30 }
  - { offsetInCU: 0xFB6E, offset: 0x465B7, size: 0x8, addend: 0x0, symName: __ZNSt3__110shared_ptrI5ScopeEaSB7v160006ERKS2_, symObjAddr: 0x6CD4, symBinAddr: 0x10001E674, symSize: 0x50 }
  - { offsetInCU: 0xFBA3, offset: 0x465EC, size: 0x8, addend: 0x0, symName: __ZNKSt3__18weak_ptrI5ScopeE4lockEv, symObjAddr: 0x6D24, symBinAddr: 0x10001E6C4, symSize: 0xE4 }
  - { offsetInCU: 0xFBF4, offset: 0x4663D, size: 0x8, addend: 0x0, symName: __ZNSt3__110shared_ptrI8VariableED2B7v160006Ev, symObjAddr: 0x7814, symBinAddr: 0x10001E7A8, symSize: 0x54 }
  - { offsetInCU: 0xFC1E, offset: 0x46667, size: 0x8, addend: 0x0, symName: __ZNKSt3__110__list_impIP4NodeNS_9allocatorIS2_EEE5emptyB7v160006Ev, symObjAddr: 0x8B64, symBinAddr: 0x10001E7FC, symSize: 0x34 }
  - { offsetInCU: 0xFC44, offset: 0x4668D, size: 0x8, addend: 0x0, symName: __ZNKSt3__110__list_impIP4NodeNS_9allocatorIS2_EEE4__szB7v160006Ev, symObjAddr: 0x8B98, symBinAddr: 0x10001E830, symSize: 0x28 }
  - { offsetInCU: 0xFC6A, offset: 0x466B3, size: 0x8, addend: 0x0, symName: __ZNKSt3__117__compressed_pairImNS_9allocatorINS_11__list_nodeIP4NodePvEEEEE5firstB7v160006Ev, symObjAddr: 0x8BC0, symBinAddr: 0x10001E858, symSize: 0x24 }
  - { offsetInCU: 0xFC90, offset: 0x466D9, size: 0x8, addend: 0x0, symName: __ZNKSt3__122__compressed_pair_elemImLi0ELb0EE5__getB7v160006Ev, symObjAddr: 0x8BE4, symBinAddr: 0x10001E87C, symSize: 0x14 }
  - { offsetInCU: 0xFCB6, offset: 0x466FF, size: 0x8, addend: 0x0, symName: __ZNSt3__115__list_iteratorIP4NodePvEmmB7v160006Ev, symObjAddr: 0x8D00, symBinAddr: 0x10001E998, symSize: 0x20 }
  - { offsetInCU: 0xFCDC, offset: 0x46725, size: 0x8, addend: 0x0, symName: __ZNSt3__19allocatorI8VariableEC1B7v160006Ev, symObjAddr: 0x8DC8, symBinAddr: 0x10001EA60, symSize: 0x2C }
  - { offsetInCU: 0xFD42, offset: 0x4678B, size: 0x8, addend: 0x0, symName: __ZNSt3__118__allocation_guardINS_9allocatorINS_20__shared_ptr_emplaceI8VariableNS1_IS3_EEEEEEEC1B7v160006IS4_EET_m, symObjAddr: 0x8DF4, symBinAddr: 0x10001EA8C, symSize: 0x34 }
  - { offsetInCU: 0xFD91, offset: 0x467DA, size: 0x8, addend: 0x0, symName: __ZNKSt3__118__allocation_guardINS_9allocatorINS_20__shared_ptr_emplaceI8VariableNS1_IS3_EEEEEEE5__getB7v160006Ev, symObjAddr: 0x8E28, symBinAddr: 0x10001EAC0, symSize: 0x18 }
  - { offsetInCU: 0xFDBC, offset: 0x46805, size: 0x8, addend: 0x0, symName: __ZNSt3__120__shared_ptr_emplaceI8VariableNS_9allocatorIS1_EEEC1B7v160006IJRNS_12basic_stringIcNS_11char_traitsIcEENS2_IcEEEESB_RiEEES3_DpOT_, symObjAddr: 0x8E40, symBinAddr: 0x10001EAD8, symSize: 0x44 }
  - { offsetInCU: 0xFE37, offset: 0x46880, size: 0x8, addend: 0x0, symName: __ZNSt3__118__allocation_guardINS_9allocatorINS_20__shared_ptr_emplaceI8VariableNS1_IS3_EEEEEEE13__release_ptrB7v160006Ev, symObjAddr: 0x8E84, symBinAddr: 0x10001EB1C, symSize: 0x24 }
  - { offsetInCU: 0xFE6B, offset: 0x468B4, size: 0x8, addend: 0x0, symName: __ZNSt3__110shared_ptrI8VariableE27__create_with_control_blockB7v160006IS1_NS_20__shared_ptr_emplaceIS1_NS_9allocatorIS1_EEEEEES2_PT_PT0_, symObjAddr: 0x8EA8, symBinAddr: 0x10001EB40, symSize: 0xA4 }
  - { offsetInCU: 0xFEC0, offset: 0x46909, size: 0x8, addend: 0x0, symName: __ZNSt3__120__shared_ptr_emplaceI8VariableNS_9allocatorIS1_EEE10__get_elemB7v160006Ev, symObjAddr: 0x8F4C, symBinAddr: 0x10001EBE4, symSize: 0x28 }
  - { offsetInCU: 0xFEE6, offset: 0x4692F, size: 0x8, addend: 0x0, symName: __ZNSt3__118__allocation_guardINS_9allocatorINS_20__shared_ptr_emplaceI8VariableNS1_IS3_EEEEEEED1B7v160006Ev, symObjAddr: 0x8F74, symBinAddr: 0x10001EC0C, symSize: 0x2C }
  - { offsetInCU: 0xFF10, offset: 0x46959, size: 0x8, addend: 0x0, symName: __ZNSt3__118__allocation_guardINS_9allocatorINS_20__shared_ptr_emplaceI8VariableNS1_IS3_EEEEEEEC2B7v160006IS4_EET_m, symObjAddr: 0x8FA0, symBinAddr: 0x10001EC38, symSize: 0x50 }
  - { offsetInCU: 0xFF5F, offset: 0x469A8, size: 0x8, addend: 0x0, symName: __ZNSt3__19allocatorINS_20__shared_ptr_emplaceI8VariableNS0_IS2_EEEEEC1B7v160006IS2_EERKNS0_IT_EE, symObjAddr: 0x8FF0, symBinAddr: 0x10001EC88, symSize: 0x34 }
  - { offsetInCU: 0xFF9D, offset: 0x469E6, size: 0x8, addend: 0x0, symName: __ZNSt3__116allocator_traitsINS_9allocatorINS_20__shared_ptr_emplaceI8VariableNS1_IS3_EEEEEEE8allocateB7v160006ERS6_m, symObjAddr: 0x9024, symBinAddr: 0x10001ECBC, symSize: 0x2C }
  - { offsetInCU: 0xFFD0, offset: 0x46A19, size: 0x8, addend: 0x0, symName: __ZNSt3__19allocatorINS_20__shared_ptr_emplaceI8VariableNS0_IS2_EEEEEC2B7v160006IS2_EERKNS0_IT_EE, symObjAddr: 0x9050, symBinAddr: 0x10001ECE8, symSize: 0x30 }
  - { offsetInCU: 0x1000E, offset: 0x46A57, size: 0x8, addend: 0x0, symName: __ZNSt3__116__non_trivial_ifILb1ENS_9allocatorINS_20__shared_ptr_emplaceI8VariableNS1_IS3_EEEEEEEC2B7v160006Ev, symObjAddr: 0x9080, symBinAddr: 0x10001ED18, symSize: 0x14 }
  - { offsetInCU: 0x10038, offset: 0x46A81, size: 0x8, addend: 0x0, symName: __ZNSt3__19allocatorINS_20__shared_ptr_emplaceI8VariableNS0_IS2_EEEEE8allocateB7v160006Em, symObjAddr: 0x9094, symBinAddr: 0x10001ED2C, symSize: 0x5C }
  - { offsetInCU: 0x10076, offset: 0x46ABF, size: 0x8, addend: 0x0, symName: __ZNSt3__116allocator_traitsINS_9allocatorINS_20__shared_ptr_emplaceI8VariableNS1_IS3_EEEEEEE8max_sizeB7v160006IS6_vEEmRKS6_, symObjAddr: 0x90F0, symBinAddr: 0x10001ED88, symSize: 0x24 }
  - { offsetInCU: 0x100A4, offset: 0x46AED, size: 0x8, addend: 0x0, symName: __ZNKSt3__19allocatorINS_20__shared_ptr_emplaceI8VariableNS0_IS2_EEEEE8max_sizeB7v160006Ev, symObjAddr: 0x9114, symBinAddr: 0x10001EDAC, symSize: 0x20 }
  - { offsetInCU: 0x100CA, offset: 0x46B13, size: 0x8, addend: 0x0, symName: __ZNSt3__120__shared_ptr_emplaceI8VariableNS_9allocatorIS1_EEEC2B7v160006IJRNS_12basic_stringIcNS_11char_traitsIcEENS2_IcEEEESB_RiEEES3_DpOT_, symObjAddr: 0x9134, symBinAddr: 0x10001EDCC, symSize: 0xCC }
  - { offsetInCU: 0x10145, offset: 0x46B8E, size: 0x8, addend: 0x0, symName: __ZNSt3__120__shared_ptr_emplaceI8VariableNS_9allocatorIS1_EEE8_StorageC1B7v160006EOS3_, symObjAddr: 0x9200, symBinAddr: 0x10001EE98, symSize: 0x34 }
  - { offsetInCU: 0x10183, offset: 0x46BCC, size: 0x8, addend: 0x0, symName: __ZN8VariableCI16RecordERKNSt3__112basic_stringIcNS0_11char_traitsIcEENS0_9allocatorIcEEEES8_i, symObjAddr: 0x9234, symBinAddr: 0x10001EECC, symSize: 0x44 }
  - { offsetInCU: 0x101CA, offset: 0x46C13, size: 0x8, addend: 0x0, symName: __ZNSt3__120__shared_ptr_emplaceI8VariableNS_9allocatorIS1_EEE8_StorageD1B7v160006Ev, symObjAddr: 0x9278, symBinAddr: 0x10001EF10, symSize: 0x2C }
  - { offsetInCU: 0x101F4, offset: 0x46C3D, size: 0x8, addend: 0x0, symName: __ZNSt3__120__shared_ptr_emplaceI8VariableNS_9allocatorIS1_EEED1Ev, symObjAddr: 0x92A4, symBinAddr: 0x10001EF3C, symSize: 0x2C }
  - { offsetInCU: 0x10221, offset: 0x46C6A, size: 0x8, addend: 0x0, symName: __ZNSt3__120__shared_ptr_emplaceI8VariableNS_9allocatorIS1_EEED0Ev, symObjAddr: 0x92D0, symBinAddr: 0x10001EF68, symSize: 0x30 }
  - { offsetInCU: 0x1024E, offset: 0x46C97, size: 0x8, addend: 0x0, symName: __ZNSt3__120__shared_ptr_emplaceI8VariableNS_9allocatorIS1_EEE16__on_zero_sharedEv, symObjAddr: 0x9300, symBinAddr: 0x10001EF98, symSize: 0x30 }
  - { offsetInCU: 0x10274, offset: 0x46CBD, size: 0x8, addend: 0x0, symName: __ZNSt3__120__shared_ptr_emplaceI8VariableNS_9allocatorIS1_EEE21__on_zero_shared_weakEv, symObjAddr: 0x9330, symBinAddr: 0x10001EFC8, symSize: 0x5C }
  - { offsetInCU: 0x102B5, offset: 0x46CFE, size: 0x8, addend: 0x0, symName: __ZNSt3__120__shared_ptr_emplaceI8VariableNS_9allocatorIS1_EEE8_StorageC2B7v160006EOS3_, symObjAddr: 0x938C, symBinAddr: 0x10001F024, symSize: 0x30 }
  - { offsetInCU: 0x102EE, offset: 0x46D37, size: 0x8, addend: 0x0, symName: __ZNSt3__120__shared_ptr_emplaceI8VariableNS_9allocatorIS1_EEE8_Storage11__get_allocEv, symObjAddr: 0x93BC, symBinAddr: 0x10001F054, symSize: 0x3C }
  - { offsetInCU: 0x10341, offset: 0x46D8A, size: 0x8, addend: 0x0, symName: __ZNSt3__117__compressed_pairINS_9allocatorI8VariableEES2_E16__get_first_baseB7v160006EPS4_, symObjAddr: 0x93F8, symBinAddr: 0x10001F090, symSize: 0x14 }
  - { offsetInCU: 0x10364, offset: 0x46DAD, size: 0x8, addend: 0x0, symName: __ZN8VariableCI26RecordERKNSt3__112basic_stringIcNS0_11char_traitsIcEENS0_9allocatorIcEEEES8_i, symObjAddr: 0x940C, symBinAddr: 0x10001F0A4, symSize: 0x5C }
  - { offsetInCU: 0x103AB, offset: 0x46DF4, size: 0x8, addend: 0x0, symName: __ZN6RecordC2ERKNSt3__112basic_stringIcNS0_11char_traitsIcEENS0_9allocatorIcEEEES8_i, symObjAddr: 0x9468, symBinAddr: 0x10001F100, symSize: 0x94 }
  - { offsetInCU: 0x103FF, offset: 0x46E48, size: 0x8, addend: 0x0, symName: __ZN8VariableD1Ev, symObjAddr: 0x94FC, symBinAddr: 0x10001F194, symSize: 0x2C }
  - { offsetInCU: 0x1042B, offset: 0x46E74, size: 0x8, addend: 0x0, symName: __ZN8VariableD0Ev, symObjAddr: 0x9528, symBinAddr: 0x10001F1C0, symSize: 0x30 }
  - { offsetInCU: 0x10457, offset: 0x46EA0, size: 0x8, addend: 0x0, symName: __ZN6RecordD1Ev, symObjAddr: 0x9558, symBinAddr: 0x10001F1F0, symSize: 0x2C }
  - { offsetInCU: 0x10481, offset: 0x46ECA, size: 0x8, addend: 0x0, symName: __ZN6RecordD0Ev, symObjAddr: 0x9584, symBinAddr: 0x10001F21C, symSize: 0x30 }
  - { offsetInCU: 0x104AB, offset: 0x46EF4, size: 0x8, addend: 0x0, symName: __ZN6RecordD2Ev, symObjAddr: 0x95B4, symBinAddr: 0x10001F24C, symSize: 0x4C }
  - { offsetInCU: 0x104D5, offset: 0x46F1E, size: 0x8, addend: 0x0, symName: __ZN8VariableD2Ev, symObjAddr: 0x9600, symBinAddr: 0x10001F298, symSize: 0x2C }
  - { offsetInCU: 0x10501, offset: 0x46F4A, size: 0x8, addend: 0x0, symName: __ZNSt3__120__shared_ptr_emplaceI8VariableNS_9allocatorIS1_EEE8_StorageD2B7v160006Ev, symObjAddr: 0x962C, symBinAddr: 0x10001F2C4, symSize: 0x2C }
  - { offsetInCU: 0x1052B, offset: 0x46F74, size: 0x8, addend: 0x0, symName: __ZNSt3__120__shared_ptr_emplaceI8VariableNS_9allocatorIS1_EEED2Ev, symObjAddr: 0x9658, symBinAddr: 0x10001F2F0, symSize: 0x48 }
  - { offsetInCU: 0x10558, offset: 0x46FA1, size: 0x8, addend: 0x0, symName: __ZNSt3__120__shared_ptr_emplaceI8VariableNS_9allocatorIS1_EEE11__get_allocB7v160006Ev, symObjAddr: 0x96A0, symBinAddr: 0x10001F338, symSize: 0x28 }
  - { offsetInCU: 0x1057E, offset: 0x46FC7, size: 0x8, addend: 0x0, symName: __ZNSt3__116allocator_traitsINS_9allocatorINS_20__shared_ptr_emplaceI8VariableNS1_IS3_EEEEEEE10deallocateB7v160006ERS6_PS5_m, symObjAddr: 0x96C8, symBinAddr: 0x10001F360, symSize: 0x34 }
  - { offsetInCU: 0x105C0, offset: 0x47009, size: 0x8, addend: 0x0, symName: __ZNSt3__114pointer_traitsIPNS_20__shared_ptr_emplaceI8VariableNS_9allocatorIS2_EEEEE10pointer_toB7v160006ERS5_, symObjAddr: 0x96FC, symBinAddr: 0x10001F394, symSize: 0x14 }
  - { offsetInCU: 0x105E3, offset: 0x4702C, size: 0x8, addend: 0x0, symName: __ZNSt3__19allocatorINS_20__shared_ptr_emplaceI8VariableNS0_IS2_EEEEE10deallocateB7v160006EPS4_m, symObjAddr: 0x9710, symBinAddr: 0x10001F3A8, symSize: 0x44 }
  - { offsetInCU: 0x10625, offset: 0x4706E, size: 0x8, addend: 0x0, symName: __ZNSt3__110shared_ptrI8VariableEC1B7v160006Ev, symObjAddr: 0x9754, symBinAddr: 0x10001F3EC, symSize: 0x2C }
  - { offsetInCU: 0x1064F, offset: 0x47098, size: 0x8, addend: 0x0, symName: __ZNSt3__110shared_ptrI8VariableE18__enable_weak_thisB7v160006Ez, symObjAddr: 0x9780, symBinAddr: 0x10001F418, symSize: 0x10 }
  - { offsetInCU: 0x10676, offset: 0x470BF, size: 0x8, addend: 0x0, symName: __ZNSt3__110shared_ptrI8VariableEC2B7v160006Ev, symObjAddr: 0x9790, symBinAddr: 0x10001F428, symSize: 0x1C }
  - { offsetInCU: 0x106A0, offset: 0x470E9, size: 0x8, addend: 0x0, symName: __ZNSt3__120__shared_ptr_emplaceI8VariableNS_9allocatorIS1_EEE8_Storage10__get_elemEv, symObjAddr: 0x97AC, symBinAddr: 0x10001F444, symSize: 0x3C }
  - { offsetInCU: 0x106F3, offset: 0x4713C, size: 0x8, addend: 0x0, symName: __ZNSt3__117__compressed_pairINS_9allocatorI8VariableEES2_E17__get_second_baseB7v160006EPS4_, symObjAddr: 0x97E8, symBinAddr: 0x10001F480, symSize: 0x14 }
  - { offsetInCU: 0x10716, offset: 0x4715F, size: 0x8, addend: 0x0, symName: __ZNSt3__118__allocation_guardINS_9allocatorINS_20__shared_ptr_emplaceI8VariableNS1_IS3_EEEEEEED2B7v160006Ev, symObjAddr: 0x97FC, symBinAddr: 0x10001F494, symSize: 0x58 }
  - { offsetInCU: 0x10740, offset: 0x47189, size: 0x8, addend: 0x0, symName: __ZNSt3__19allocatorI8VariableEC2B7v160006Ev, symObjAddr: 0x9854, symBinAddr: 0x10001F4EC, symSize: 0x2C }
  - { offsetInCU: 0x1076A, offset: 0x471B3, size: 0x8, addend: 0x0, symName: __ZNSt3__116__non_trivial_ifILb1ENS_9allocatorI8VariableEEEC2B7v160006Ev, symObjAddr: 0x9880, symBinAddr: 0x10001F518, symSize: 0x14 }
  - { offsetInCU: 0x10794, offset: 0x471DD, size: 0x8, addend: 0x0, symName: __ZNSt3__110shared_ptrI6RecordEC2B7v160006I8VariablevEERKNS0_IT_EE, symObjAddr: 0x9894, symBinAddr: 0x10001F52C, symSize: 0x70 }
...
